

Microchip MPLAB XC8 Assembler V2.31 build 20201012212115 
                                                                                               Tue Aug 31 09:12:06 2021

Microchip MPLAB XC8 C Compiler v2.31 (Free license) build 20201012212115 Og1 
     1                           	processor	16F887
     2                           	pagewidth 120
     3                           	opt	flic
     4                           	psect	idataBANK0,global,class=CODE,delta=2,noexec
     5                           	psect	strings,global,class=STRING,delta=2,noexec
     6                           	psect	cinit,global,class=CODE,merge=1,delta=2
     7                           	psect	bssCOMMON,global,class=COMMON,space=1,delta=1,noexec
     8                           	psect	bssBANK0,global,class=BANK0,space=1,delta=1,noexec
     9                           	psect	dataBANK0,global,class=BANK0,space=1,delta=1,noexec
    10                           	psect	bssBANK1,global,class=BANK1,space=1,delta=1,noexec
    11                           	psect	clrtext,global,class=CODE,delta=2
    12                           	psect	cstackCOMMON,global,class=COMMON,space=1,delta=1,noexec
    13                           	psect	cstackBANK0,global,class=BANK0,space=1,delta=1,noexec
    14                           	psect	maintext,global,class=CODE,split=1,delta=2
    15                           	psect	text1,local,class=CODE,merge=1,delta=2
    16                           	psect	text2,local,class=CODE,merge=1,delta=2
    17                           	psect	text3,local,class=CODE,merge=1,delta=2,group=1
    18                           	psect	text4,local,class=CODE,merge=1,delta=2
    19                           	psect	text5,local,class=CODE,merge=1,delta=2
    20                           	psect	text6,local,class=CODE,merge=1,delta=2,group=1
    21                           	psect	text7,local,class=CODE,merge=1,delta=2,group=1
    22                           	psect	text8,local,class=CODE,merge=1,delta=2,group=1
    23                           	psect	text9,local,class=CODE,merge=1,delta=2,group=1
    24                           	psect	text10,local,class=CODE,merge=1,delta=2
    25                           	psect	text11,local,class=CODE,merge=1,delta=2,group=1
    26                           	psect	text12,local,class=CODE,merge=1,delta=2,group=1
    27                           	psect	text13,local,class=CODE,merge=1,delta=2
    28                           	psect	text14,local,class=CODE,merge=1,delta=2
    29                           	psect	text15,local,class=CODE,merge=1,delta=2
    30                           	psect	text16,local,class=CODE,merge=1,delta=2
    31                           	psect	text17,local,class=CODE,merge=1,delta=2
    32                           	psect	text18,local,class=CODE,merge=1,delta=2
    33                           	psect	text19,local,class=CODE,merge=1,delta=2
    34                           	psect	text20,local,class=CODE,merge=1,delta=2
    35                           	psect	text21,local,class=CODE,merge=1,delta=2
    36                           	psect	text22,local,class=CODE,merge=1,delta=2
    37                           	psect	text23,local,class=CODE,merge=1,delta=2
    38                           	psect	text24,local,class=CODE,merge=1,delta=2
    39                           	psect	text25,local,class=CODE,merge=1,delta=2
    40                           	psect	intentry,global,class=CODE,delta=2
    41                           	psect	text26,local,class=CODE,merge=1,delta=2,group=1
    42                           	psect	config,global,abs,ovrld,class=CONFIG,space=4,delta=2,noexec
    43                           	dabs	1,0x7E,2
    44  0000                     
    45                           ; Version 2.20
    46                           ; Generated 12/02/2020 GMT
    47                           ; 
    48                           ; Copyright © 2020, Microchip Technology Inc. and its subsidiaries ("Microchip")
    49                           ; All rights reserved.
    50                           ; 
    51                           ; This software is developed by Microchip Technology Inc. and its subsidiaries ("Microch
      +                          ip").
    52                           ; 
    53                           ; Redistribution and use in source and binary forms, with or without modification, are
    54                           ; permitted provided that the following conditions are met:
    55                           ; 
    56                           ;     1. Redistributions of source code must retain the above copyright notice, this lis
      +                          t of
    57                           ;        conditions and the following disclaimer.
    58                           ; 
    59                           ;     2. Redistributions in binary form must reproduce the above copyright notice, this 
      +                          list
    60                           ;        of conditions and the following disclaimer in the documentation and/or other
    61                           ;        materials provided with the distribution.
    62                           ; 
    63                           ;     3. Microchip's name may not be used to endorse or promote products derived from th
      +                          is
    64                           ;        software without specific prior written permission.
    65                           ; 
    66                           ; THIS SOFTWARE IS PROVIDED BY MICROCHIP "AS IS" AND ANY EXPRESS OR IMPLIED WARRANTIES,
    67                           ; INCLUDING, BUT NOT LIMITED TO, THE IMPLIED WARRANTIES OF MERCHANTABILITY AND FITNESS F
      +                          OR
    68                           ; PURPOSE ARE DISCLAIMED.  IN NO EVENT SHALL MICROCHIP BE LIABLE FOR ANY DIRECT, INDIREC
      +                          T,
    69                           ; INCIDENTAL, SPECIAL, EXEMPLARY, OR CONSEQUENTIAL DAMAGES (INCLUDING BUT NOT LIMITED TO
    70                           ; PROCUREMENT OF SUBSTITUTE GOODS OR SERVICES; LOSS OF USE, DATA OR PROFITS; OR BUSINESS
    71                           ; INTERRUPTION) HOWSOEVER CAUSED AND ON ANY THEORY OF LIABILITY, WHETHER IN CONTRACT, ST
      +                          RICT
    72                           ; LIABILITY, OR TORT (INCLUDING NEGLIGENCE OR OTHERWISE) ARISING IN ANY WAY OUT OF THE U
      +                          SE OF
    73                           ; THIS SOFTWARE, EVEN IF ADVISED OF THE POSSIBILITY OF SUCH DAMAGE.
    74                           ; 
    75                           ; 
    76                           ; Code-generator required, PIC16F887 Definitions
    77                           ; 
    78                           ; SFR Addresses
    79  0000                     	;# 
    80  0001                     	;# 
    81  0002                     	;# 
    82  0003                     	;# 
    83  0004                     	;# 
    84  0005                     	;# 
    85  0006                     	;# 
    86  0007                     	;# 
    87  0008                     	;# 
    88  0009                     	;# 
    89  000A                     	;# 
    90  000B                     	;# 
    91  000C                     	;# 
    92  000D                     	;# 
    93  000E                     	;# 
    94  000E                     	;# 
    95  000F                     	;# 
    96  0010                     	;# 
    97  0011                     	;# 
    98  0012                     	;# 
    99  0013                     	;# 
   100  0014                     	;# 
   101  0015                     	;# 
   102  0015                     	;# 
   103  0016                     	;# 
   104  0017                     	;# 
   105  0018                     	;# 
   106  0019                     	;# 
   107  001A                     	;# 
   108  001B                     	;# 
   109  001B                     	;# 
   110  001C                     	;# 
   111  001D                     	;# 
   112  001E                     	;# 
   113  001F                     	;# 
   114  0081                     	;# 
   115  0085                     	;# 
   116  0086                     	;# 
   117  0087                     	;# 
   118  0088                     	;# 
   119  0089                     	;# 
   120  008C                     	;# 
   121  008D                     	;# 
   122  008E                     	;# 
   123  008F                     	;# 
   124  0090                     	;# 
   125  0091                     	;# 
   126  0092                     	;# 
   127  0093                     	;# 
   128  0093                     	;# 
   129  0093                     	;# 
   130  0094                     	;# 
   131  0095                     	;# 
   132  0096                     	;# 
   133  0097                     	;# 
   134  0098                     	;# 
   135  0099                     	;# 
   136  009A                     	;# 
   137  009B                     	;# 
   138  009C                     	;# 
   139  009D                     	;# 
   140  009E                     	;# 
   141  009F                     	;# 
   142  0105                     	;# 
   143  0107                     	;# 
   144  0108                     	;# 
   145  0109                     	;# 
   146  010C                     	;# 
   147  010C                     	;# 
   148  010D                     	;# 
   149  010E                     	;# 
   150  010F                     	;# 
   151  0185                     	;# 
   152  0187                     	;# 
   153  0188                     	;# 
   154  0189                     	;# 
   155  018C                     	;# 
   156  018D                     	;# 
   157  0000                     	;# 
   158  0001                     	;# 
   159  0002                     	;# 
   160  0003                     	;# 
   161  0004                     	;# 
   162  0005                     	;# 
   163  0006                     	;# 
   164  0007                     	;# 
   165  0008                     	;# 
   166  0009                     	;# 
   167  000A                     	;# 
   168  000B                     	;# 
   169  000C                     	;# 
   170  000D                     	;# 
   171  000E                     	;# 
   172  000E                     	;# 
   173  000F                     	;# 
   174  0010                     	;# 
   175  0011                     	;# 
   176  0012                     	;# 
   177  0013                     	;# 
   178  0014                     	;# 
   179  0015                     	;# 
   180  0015                     	;# 
   181  0016                     	;# 
   182  0017                     	;# 
   183  0018                     	;# 
   184  0019                     	;# 
   185  001A                     	;# 
   186  001B                     	;# 
   187  001B                     	;# 
   188  001C                     	;# 
   189  001D                     	;# 
   190  001E                     	;# 
   191  001F                     	;# 
   192  0081                     	;# 
   193  0085                     	;# 
   194  0086                     	;# 
   195  0087                     	;# 
   196  0088                     	;# 
   197  0089                     	;# 
   198  008C                     	;# 
   199  008D                     	;# 
   200  008E                     	;# 
   201  008F                     	;# 
   202  0090                     	;# 
   203  0091                     	;# 
   204  0092                     	;# 
   205  0093                     	;# 
   206  0093                     	;# 
   207  0093                     	;# 
   208  0094                     	;# 
   209  0095                     	;# 
   210  0096                     	;# 
   211  0097                     	;# 
   212  0098                     	;# 
   213  0099                     	;# 
   214  009A                     	;# 
   215  009B                     	;# 
   216  009C                     	;# 
   217  009D                     	;# 
   218  009E                     	;# 
   219  009F                     	;# 
   220  0105                     	;# 
   221  0107                     	;# 
   222  0108                     	;# 
   223  0109                     	;# 
   224  010C                     	;# 
   225  010C                     	;# 
   226  010D                     	;# 
   227  010E                     	;# 
   228  010F                     	;# 
   229  0185                     	;# 
   230  0187                     	;# 
   231  0188                     	;# 
   232  0189                     	;# 
   233  018C                     	;# 
   234  018D                     	;# 
   235  0000                     	;# 
   236  0001                     	;# 
   237  0002                     	;# 
   238  0003                     	;# 
   239  0004                     	;# 
   240  0005                     	;# 
   241  0006                     	;# 
   242  0007                     	;# 
   243  0008                     	;# 
   244  0009                     	;# 
   245  000A                     	;# 
   246  000B                     	;# 
   247  000C                     	;# 
   248  000D                     	;# 
   249  000E                     	;# 
   250  000E                     	;# 
   251  000F                     	;# 
   252  0010                     	;# 
   253  0011                     	;# 
   254  0012                     	;# 
   255  0013                     	;# 
   256  0014                     	;# 
   257  0015                     	;# 
   258  0015                     	;# 
   259  0016                     	;# 
   260  0017                     	;# 
   261  0018                     	;# 
   262  0019                     	;# 
   263  001A                     	;# 
   264  001B                     	;# 
   265  001B                     	;# 
   266  001C                     	;# 
   267  001D                     	;# 
   268  001E                     	;# 
   269  001F                     	;# 
   270  0081                     	;# 
   271  0085                     	;# 
   272  0086                     	;# 
   273  0087                     	;# 
   274  0088                     	;# 
   275  0089                     	;# 
   276  008C                     	;# 
   277  008D                     	;# 
   278  008E                     	;# 
   279  008F                     	;# 
   280  0090                     	;# 
   281  0091                     	;# 
   282  0092                     	;# 
   283  0093                     	;# 
   284  0093                     	;# 
   285  0093                     	;# 
   286  0094                     	;# 
   287  0095                     	;# 
   288  0096                     	;# 
   289  0097                     	;# 
   290  0098                     	;# 
   291  0099                     	;# 
   292  009A                     	;# 
   293  009B                     	;# 
   294  009C                     	;# 
   295  009D                     	;# 
   296  009E                     	;# 
   297  009F                     	;# 
   298  0105                     	;# 
   299  0107                     	;# 
   300  0108                     	;# 
   301  0109                     	;# 
   302  010C                     	;# 
   303  010C                     	;# 
   304  010D                     	;# 
   305  010E                     	;# 
   306  010F                     	;# 
   307  0185                     	;# 
   308  0187                     	;# 
   309  0188                     	;# 
   310  0189                     	;# 
   311  018C                     	;# 
   312  018D                     	;# 
   313  0000                     	;# 
   314  0001                     	;# 
   315  0002                     	;# 
   316  0003                     	;# 
   317  0004                     	;# 
   318  0005                     	;# 
   319  0006                     	;# 
   320  0007                     	;# 
   321  0008                     	;# 
   322  0009                     	;# 
   323  000A                     	;# 
   324  000B                     	;# 
   325  000C                     	;# 
   326  000D                     	;# 
   327  000E                     	;# 
   328  000E                     	;# 
   329  000F                     	;# 
   330  0010                     	;# 
   331  0011                     	;# 
   332  0012                     	;# 
   333  0013                     	;# 
   334  0014                     	;# 
   335  0015                     	;# 
   336  0015                     	;# 
   337  0016                     	;# 
   338  0017                     	;# 
   339  0018                     	;# 
   340  0019                     	;# 
   341  001A                     	;# 
   342  001B                     	;# 
   343  001B                     	;# 
   344  001C                     	;# 
   345  001D                     	;# 
   346  001E                     	;# 
   347  001F                     	;# 
   348  0081                     	;# 
   349  0085                     	;# 
   350  0086                     	;# 
   351  0087                     	;# 
   352  0088                     	;# 
   353  0089                     	;# 
   354  008C                     	;# 
   355  008D                     	;# 
   356  008E                     	;# 
   357  008F                     	;# 
   358  0090                     	;# 
   359  0091                     	;# 
   360  0092                     	;# 
   361  0093                     	;# 
   362  0093                     	;# 
   363  0093                     	;# 
   364  0094                     	;# 
   365  0095                     	;# 
   366  0096                     	;# 
   367  0097                     	;# 
   368  0098                     	;# 
   369  0099                     	;# 
   370  009A                     	;# 
   371  009B                     	;# 
   372  009C                     	;# 
   373  009D                     	;# 
   374  009E                     	;# 
   375  009F                     	;# 
   376  0105                     	;# 
   377  0107                     	;# 
   378  0108                     	;# 
   379  0109                     	;# 
   380  010C                     	;# 
   381  010C                     	;# 
   382  010D                     	;# 
   383  010E                     	;# 
   384  010F                     	;# 
   385  0185                     	;# 
   386  0187                     	;# 
   387  0188                     	;# 
   388  0189                     	;# 
   389  018C                     	;# 
   390  018D                     	;# 
   391  0000                     	;# 
   392  0001                     	;# 
   393  0002                     	;# 
   394  0003                     	;# 
   395  0004                     	;# 
   396  0005                     	;# 
   397  0006                     	;# 
   398  0007                     	;# 
   399  0008                     	;# 
   400  0009                     	;# 
   401  000A                     	;# 
   402  000B                     	;# 
   403  000C                     	;# 
   404  000D                     	;# 
   405  000E                     	;# 
   406  000E                     	;# 
   407  000F                     	;# 
   408  0010                     	;# 
   409  0011                     	;# 
   410  0012                     	;# 
   411  0013                     	;# 
   412  0014                     	;# 
   413  0015                     	;# 
   414  0015                     	;# 
   415  0016                     	;# 
   416  0017                     	;# 
   417  0018                     	;# 
   418  0019                     	;# 
   419  001A                     	;# 
   420  001B                     	;# 
   421  001B                     	;# 
   422  001C                     	;# 
   423  001D                     	;# 
   424  001E                     	;# 
   425  001F                     	;# 
   426  0081                     	;# 
   427  0085                     	;# 
   428  0086                     	;# 
   429  0087                     	;# 
   430  0088                     	;# 
   431  0089                     	;# 
   432  008C                     	;# 
   433  008D                     	;# 
   434  008E                     	;# 
   435  008F                     	;# 
   436  0090                     	;# 
   437  0091                     	;# 
   438  0092                     	;# 
   439  0093                     	;# 
   440  0093                     	;# 
   441  0093                     	;# 
   442  0094                     	;# 
   443  0095                     	;# 
   444  0096                     	;# 
   445  0097                     	;# 
   446  0098                     	;# 
   447  0099                     	;# 
   448  009A                     	;# 
   449  009B                     	;# 
   450  009C                     	;# 
   451  009D                     	;# 
   452  009E                     	;# 
   453  009F                     	;# 
   454  0105                     	;# 
   455  0107                     	;# 
   456  0108                     	;# 
   457  0109                     	;# 
   458  010C                     	;# 
   459  010C                     	;# 
   460  010D                     	;# 
   461  010E                     	;# 
   462  010F                     	;# 
   463  0185                     	;# 
   464  0187                     	;# 
   465  0188                     	;# 
   466  0189                     	;# 
   467  018C                     	;# 
   468  018D                     	;# 
   469                           
   470                           	psect	idataBANK0
   471  0003                     __pidataBANK0:
   472                           
   473                           ;initializer for _u_flag
   474  0003  3401               	retlw	1
   475  0005                     _PORTAbits	set	5
   476  0012                     _T2CONbits	set	18
   477  0015                     _CCPR1L	set	21
   478  0017                     _CCP1CONbits	set	23
   479  0001                     _TMR0	set	1
   480  0018                     _RCSTAbits	set	24
   481  0009                     _PORTE	set	9
   482  0007                     _PORTC	set	7
   483  0005                     _PORTA	set	5
   484  0006                     _PORTBbits	set	6
   485  001D                     _CCP2CONbits	set	29
   486  001B                     _CCPR2L	set	27
   487  0019                     _TXREG	set	25
   488  0006                     _PORTB	set	6
   489  001A                     _RCREG	set	26
   490  000C                     _PIR1bits	set	12
   491  000B                     _INTCONbits	set	11
   492  0008                     _PORTD	set	8
   493  0013                     _SSPBUF	set	19
   494  0014                     _SSPCON	set	20
   495  0064                     _TXIF	set	100
   496  0049                     _RE1	set	73
   497  0048                     _RE0	set	72
   498  0063                     _SSPIF	set	99
   499  005E                     _PEIE	set	94
   500  005F                     _GIE	set	95
   501  0092                     _PR2	set	146
   502  0081                     _OPTION_REGbits	set	129
   503  009A                     _SPBRGH	set	154
   504  0099                     _SPBRG	set	153
   505  0098                     _TXSTAbits	set	152
   506  0086                     _TRISB	set	134
   507  0089                     _TRISE	set	137
   508  0088                     _TRISD	set	136
   509  0085                     _TRISA	set	133
   510  008F                     _OSCCONbits	set	143
   511  0091                     _SSPCON2bits	set	145
   512  0087                     _TRISCbits	set	135
   513  0094                     _SSPSTAT	set	148
   514  0093                     _SSPADD	set	147
   515  0091                     _SSPCON2	set	145
   516  0464                     _TXIE	set	1124
   517  0463                     _SSPIE	set	1123
   518  043C                     _TRISC4	set	1084
   519  043B                     _TRISC3	set	1083
   520  0187                     _BAUDCTLbits	set	391
   521  0189                     _ANSELH	set	393
   522  0188                     _ANSEL	set	392
   523                           
   524                           	psect	strings
   525  0800                     __pstrings:
   526  0800                     stringtab:
   527  0800                     __stringtab:
   528  0800                     stringcode:	
   529                           ;	String table - string pointers are 1 byte each
   530                           
   531  0800                     stringdir:
   532  0800  3008               	movlw	high stringdir
   533  0801  008A               	movwf	10
   534  0802  0804               	movf	4,w
   535  0803  0A84               	incf	4,f
   536  0804  0782               	addwf	2,f
   537  0805                     __stringbase:
   538  0805  3400               	retlw	0
   539  0806                     __end_of__stringtab:
   540  0806                     STR_1:
   541  0806  3420               	retlw	32	;' '
   542  0807  3453               	retlw	83	;'S'
   543  0808  3431               	retlw	49	;'1'
   544  0809  343A               	retlw	58	;':'
   545  080A  3420               	retlw	32	;' '
   546  080B  3420               	retlw	32	;' '
   547  080C  3420               	retlw	32	;' '
   548  080D  3453               	retlw	83	;'S'
   549  080E  3432               	retlw	50	;'2'
   550  080F  343A               	retlw	58	;':'
   551  0810  3420               	retlw	32	;' '
   552  0811  3420               	retlw	32	;' '
   553  0812  3420               	retlw	32	;' '
   554  0813  3453               	retlw	83	;'S'
   555  0814  3433               	retlw	51	;'3'
   556  0815  343A               	retlw	58	;':'
   557  0816  3400               	retlw	0
   558  0817                     STR_3:
   559  0817  34DF               	retlw	-33
   560  0818  3443               	retlw	67	;'C'
   561  0819  3420               	retlw	32	;' '
   562  081A  3420               	retlw	32	;' '
   563  081B  3400               	retlw	0
   564  081C                     STR_2:
   565  081C  3476               	retlw	118	;'v'
   566  081D  3420               	retlw	32	;' '
   567  081E  3400               	retlw	0
   568  081B                     
   569                           	psect	cinit
   570  0011                     start_initialization:	
   571                           ; #config settings
   572                           
   573  0011                     __initialization:
   574                           
   575                           ; Initialize objects allocated to BANK0
   576  0011  120A  118A  2003  120A  118A  	fcall	__pidataBANK0	;fetch initializer
   577  0016  00EF               	movwf	__pdataBANK0& (0+127)
   578                           
   579                           ; Clear objects allocated to BANK1
   580  0017  1683               	bsf	3,5	;RP0=1, select bank1
   581  0018  1303               	bcf	3,6	;RP1=0, select bank1
   582  0019  01A0               	clrf	__pbssBANK1& (0+127)
   583  001A  01A1               	clrf	(__pbssBANK1+1)& (0+127)
   584  001B  01A2               	clrf	(__pbssBANK1+2)& (0+127)
   585  001C  01A3               	clrf	(__pbssBANK1+3)& (0+127)
   586  001D  01A4               	clrf	(__pbssBANK1+4)& (0+127)
   587                           
   588                           ; Clear objects allocated to BANK0
   589  001E  1383               	bcf	3,7	;select IRP bank0
   590  001F  3056               	movlw	low __pbssBANK0
   591  0020  0084               	movwf	4
   592  0021  306F               	movlw	low (__pbssBANK0+25)
   593  0022  120A  158A  2403  120A  118A  	fcall	clear_ram0
   594                           
   595                           ; Clear objects allocated to COMMON
   596  0027  01FB               	clrf	__pbssCOMMON& (0+127)
   597  0028  01FC               	clrf	(__pbssCOMMON+1)& (0+127)
   598  0029  01FD               	clrf	(__pbssCOMMON+2)& (0+127)
   599  002A                     end_of_initialization:	
   600                           ;End of C runtime variable initialization code
   601                           
   602  002A                     __end_of__initialization:
   603  002A  0183               	clrf	3
   604  002B  120A  118A  2B8F   	ljmp	_main	;jump to C main() function
   605                           
   606                           	psect	bssCOMMON
   607  007B                     __pbssCOMMON:
   608  007B                     _val_USART:
   609  007B                     	ds	1
   610  007C                     _guia:
   611  007C                     	ds	1
   612  007D                     _POS1_LDR:
   613  007D                     	ds	1
   614                           
   615                           	psect	bssBANK0
   616  0056                     __pbssBANK0:
   617  0056                     _valor_ADC:
   618  0056                     	ds	2
   619  0058                     _valor_Servo:
   620  0058                     	ds	1
   621  0059                     _decena:
   622  0059                     	ds	1
   623  005A                     _unidad:
   624  005A                     	ds	1
   625  005B                     _c_flag:
   626  005B                     	ds	1
   627  005C                     _d_flag:
   628  005C                     	ds	1
   629  005D                     _bandera_buzzer:
   630  005D                     	ds	1
   631  005E                     _cont:
   632  005E                     	ds	1
   633  005F                     _contador_decena:
   634  005F                     	ds	1
   635  0060                     _contador_unidad:
   636  0060                     	ds	1
   637  0061                     _contador:
   638  0061                     	ds	1
   639  0062                     _RC_temp:
   640  0062                     	ds	1
   641  0063                     _alarma:
   642  0063                     	ds	1
   643  0064                     _POS3_BZ:
   644  0064                     	ds	1
   645  0065                     _POS2_BZ:
   646  0065                     	ds	1
   647  0066                     _POS1_BZ:
   648  0066                     	ds	1
   649  0067                     _POS3_TMP:
   650  0067                     	ds	1
   651  0068                     _POS2_TMP:
   652  0068                     	ds	1
   653  0069                     _POS1_TMP:
   654  0069                     	ds	1
   655  006A                     _POS3_LDR:
   656  006A                     	ds	1
   657  006B                     _POS2_LDR:
   658  006B                     	ds	1
   659  006C                     _POS3:
   660  006C                     	ds	1
   661  006D                     _POS2:
   662  006D                     	ds	1
   663  006E                     _POS1:
   664  006E                     	ds	1
   665                           
   666                           	psect	dataBANK0
   667  006F                     __pdataBANK0:
   668  006F                     _u_flag:
   669  006F                     	ds	1
   670                           
   671                           	psect	bssBANK1
   672  00A0                     __pbssBANK1:
   673  00A0                     _T_byte1:
   674  00A0                     	ds	2
   675  00A2                     _TEMP:
   676  00A2                     	ds	2
   677  00A4                     _contador_centena:
   678  00A4                     	ds	1
   679                           
   680                           	psect	clrtext
   681  0C03                     clear_ram0:	
   682                           ;	Called with FSR containing the base address, and
   683                           ;	W with the last address+1
   684                           
   685  0C03  0064               	clrwdt	;clear the watchdog before getting into this loop
   686  0C04                     clrloop0:
   687  0C04  0180               	clrf	0	;clear RAM location pointed to by FSR
   688  0C05  0A84               	incf	4,f	;increment pointer
   689  0C06  0604               	xorwf	4,w	;XOR with final address
   690  0C07  1903               	btfsc	3,2	;have we reached the end yet?
   691  0C08  3400               	retlw	0	;all done for this memory range, return
   692  0C09  0604               	xorwf	4,w	;XOR again to restore value
   693  0C0A  2C04               	goto	clrloop0	;do the next byte
   694                           
   695                           	psect	cstackCOMMON
   696  0070                     __pcstackCOMMON:
   697  0070                     ?_setup:
   698  0070                     ?_moverVentilador:	
   699                           ; 1 bytes @ 0x0
   700                           
   701  0070                     ?_alarmaBuzzer:	
   702                           ; 1 bytes @ 0x0
   703                           
   704  0070                     ?_I2C_Master_Wait:	
   705                           ; 1 bytes @ 0x0
   706                           
   707  0070                     ?_I2C_Master_Start:	
   708                           ; 1 bytes @ 0x0
   709                           
   710  0070                     ?_I2C_Master_Stop:	
   711                           ; 1 bytes @ 0x0
   712                           
   713  0070                     ?_Lcd_Port:	
   714                           ; 1 bytes @ 0x0
   715                           
   716  0070                     ?_Lcd_Cmd:	
   717                           ; 1 bytes @ 0x0
   718                           
   719  0070                     ?_Lcd_Clear:	
   720                           ; 1 bytes @ 0x0
   721                           
   722  0070                     ?_Lcd_Init:	
   723                           ; 1 bytes @ 0x0
   724                           
   725  0070                     ?_Lcd_Write_Char:	
   726                           ; 1 bytes @ 0x0
   727                           
   728  0070                     ?_Lcd_Write_String:	
   729                           ; 1 bytes @ 0x0
   730                           
   731  0070                     ?_isr:	
   732                           ; 1 bytes @ 0x0
   733                           
   734  0070                     ?_main:	
   735                           ; 1 bytes @ 0x0
   736                           
   737  0070                     ?___bmul:	
   738                           ; 1 bytes @ 0x0
   739                           
   740  0070                     ___bmul@multiplicand:	
   741                           ; 1 bytes @ 0x0
   742                           
   743                           
   744                           ; 1 bytes @ 0x0
   745  0070                     	ds	1
   746  0071                     ??___bmul:
   747                           
   748                           ; 1 bytes @ 0x1
   749  0071                     	ds	1
   750  0072                     ___bmul@product:
   751                           
   752                           ; 1 bytes @ 0x2
   753  0072                     	ds	1
   754  0073                     ___bmul@multiplier:
   755                           
   756                           ; 1 bytes @ 0x3
   757  0073                     	ds	1
   758  0074                     ??_isr:
   759                           
   760                           ; 1 bytes @ 0x4
   761  0074                     	ds	7
   762                           
   763                           	psect	cstackBANK0
   764  0020                     __pcstackBANK0:
   765  0020                     ??_moverVentilador:
   766  0020                     ??_alarmaBuzzer:	
   767                           ; 1 bytes @ 0x0
   768                           
   769  0020                     ??_I2C_Master_Wait:	
   770                           ; 1 bytes @ 0x0
   771                           
   772  0020                     ??_I2C_Master_Start:	
   773                           ; 1 bytes @ 0x0
   774                           
   775  0020                     ??_I2C_Master_Stop:	
   776                           ; 1 bytes @ 0x0
   777                           
   778  0020                     ?_I2C_Master_Write:	
   779                           ; 1 bytes @ 0x0
   780                           
   781  0020                     ??_Lcd_Port:	
   782                           ; 1 bytes @ 0x0
   783                           
   784  0020                     ?__Umul8_16:	
   785                           ; 1 bytes @ 0x0
   786                           
   787  0020                     ?_I2C_Master_Read:	
   788                           ; 2 bytes @ 0x0
   789                           
   790  0020                     ?___wmul:	
   791                           ; 2 bytes @ 0x0
   792                           
   793  0020                     ?___lwdiv:	
   794                           ; 2 bytes @ 0x0
   795                           
   796  0020                     ?___lldiv:	
   797                           ; 2 bytes @ 0x0
   798                           
   799  0020                     ?___xxtofl:	
   800                           ; 4 bytes @ 0x0
   801                           
   802  0020                     Lcd_Port@a:	
   803                           ; 4 bytes @ 0x0
   804                           
   805  0020                     __Umul8_16@multiplicand:	
   806                           ; 1 bytes @ 0x0
   807                           
   808  0020                     I2C_Master_Write@d:	
   809                           ; 1 bytes @ 0x0
   810                           
   811  0020                     I2C_Master_Read@a:	
   812                           ; 2 bytes @ 0x0
   813                           
   814  0020                     ___wmul@multiplier:	
   815                           ; 2 bytes @ 0x0
   816                           
   817  0020                     ___lwdiv@divisor:	
   818                           ; 2 bytes @ 0x0
   819                           
   820  0020                     ___lldiv@divisor:	
   821                           ; 2 bytes @ 0x0
   822                           
   823  0020                     ___xxtofl@val:	
   824                           ; 4 bytes @ 0x0
   825                           
   826                           
   827                           ; 4 bytes @ 0x0
   828  0020                     	ds	1
   829  0021                     ??_Lcd_Cmd:
   830  0021                     ??_Lcd_Write_Char:	
   831                           ; 1 bytes @ 0x1
   832                           
   833                           
   834                           ; 1 bytes @ 0x1
   835  0021                     	ds	1
   836  0022                     ??__Umul8_16:
   837  0022                     ??_I2C_Master_Write:	
   838                           ; 1 bytes @ 0x2
   839                           
   840  0022                     ??_I2C_Master_Read:	
   841                           ; 1 bytes @ 0x2
   842                           
   843  0022                     Lcd_Write_Char@a:	
   844                           ; 1 bytes @ 0x2
   845                           
   846  0022                     ___wmul@multiplicand:	
   847                           ; 1 bytes @ 0x2
   848                           
   849  0022                     ___lwdiv@dividend:	
   850                           ; 2 bytes @ 0x2
   851                           
   852                           
   853                           ; 2 bytes @ 0x2
   854  0022                     	ds	1
   855  0023                     Lcd_Cmd@a:
   856  0023                     Lcd_Write_Char@temp:	
   857                           ; 1 bytes @ 0x3
   858                           
   859                           
   860                           ; 1 bytes @ 0x3
   861  0023                     	ds	1
   862  0024                     ??_Lcd_Clear:
   863  0024                     ?_Lcd_Set_Cursor:	
   864                           ; 1 bytes @ 0x4
   865                           
   866  0024                     ??_Lcd_Init:	
   867                           ; 1 bytes @ 0x4
   868                           
   869  0024                     ??___wmul:	
   870                           ; 1 bytes @ 0x4
   871                           
   872  0024                     ??___lwdiv:	
   873                           ; 1 bytes @ 0x4
   874                           
   875  0024                     ??___xxtofl:	
   876                           ; 1 bytes @ 0x4
   877                           
   878  0024                     Lcd_Set_Cursor@b:	
   879                           ; 1 bytes @ 0x4
   880                           
   881  0024                     Lcd_Write_Char@y:	
   882                           ; 1 bytes @ 0x4
   883                           
   884  0024                     I2C_Master_Read@temp:	
   885                           ; 1 bytes @ 0x4
   886                           
   887  0024                     ___wmul@product:	
   888                           ; 2 bytes @ 0x4
   889                           
   890  0024                     __Umul8_16@product:	
   891                           ; 2 bytes @ 0x4
   892                           
   893  0024                     ___lldiv@dividend:	
   894                           ; 2 bytes @ 0x4
   895                           
   896                           
   897                           ; 4 bytes @ 0x4
   898  0024                     	ds	1
   899  0025                     ??_Lcd_Set_Cursor:
   900  0025                     ??_Lcd_Write_String:	
   901                           ; 1 bytes @ 0x5
   902                           
   903  0025                     Lcd_Write_String@i:	
   904                           ; 1 bytes @ 0x5
   905                           
   906  0025                     ___lwdiv@quotient:	
   907                           ; 2 bytes @ 0x5
   908                           
   909                           
   910                           ; 2 bytes @ 0x5
   911  0025                     	ds	1
   912  0026                     __Umul8_16@word_mpld:
   913                           
   914                           ; 2 bytes @ 0x6
   915  0026                     	ds	1
   916  0027                     Lcd_Set_Cursor@a:
   917  0027                     Lcd_Write_String@a:	
   918                           ; 1 bytes @ 0x7
   919                           
   920  0027                     ___lwdiv@counter:	
   921                           ; 1 bytes @ 0x7
   922                           
   923                           
   924                           ; 1 bytes @ 0x7
   925  0027                     	ds	1
   926  0028                     ?_VAL:
   927  0028                     ??___lldiv:	
   928                           ; 1 bytes @ 0x8
   929                           
   930  0028                     Lcd_Set_Cursor@z:	
   931                           ; 1 bytes @ 0x8
   932                           
   933  0028                     __Umul8_16@multiplier:	
   934                           ; 1 bytes @ 0x8
   935                           
   936  0028                     ___xxtofl@sign:	
   937                           ; 1 bytes @ 0x8
   938                           
   939  0028                     VAL@variable:	
   940                           ; 1 bytes @ 0x8
   941                           
   942                           
   943                           ; 2 bytes @ 0x8
   944  0028                     	ds	1
   945  0029                     Lcd_Set_Cursor@y:
   946  0029                     ___xxtofl@exp:	
   947                           ; 1 bytes @ 0x9
   948                           
   949  0029                     ___lldiv@quotient:	
   950                           ; 1 bytes @ 0x9
   951                           
   952                           
   953                           ; 4 bytes @ 0x9
   954  0029                     	ds	1
   955  002A                     ??_VAL:
   956  002A                     Lcd_Set_Cursor@temp:	
   957                           ; 1 bytes @ 0xA
   958                           
   959  002A                     ___xxtofl@arg:	
   960                           ; 1 bytes @ 0xA
   961                           
   962                           
   963                           ; 4 bytes @ 0xA
   964  002A                     	ds	2
   965  002C                     VAL@valor:
   966                           
   967                           ; 2 bytes @ 0xC
   968  002C                     	ds	1
   969  002D                     ___lldiv@counter:
   970                           
   971                           ; 1 bytes @ 0xD
   972  002D                     	ds	1
   973  002E                     ?_I2C_Master_Init:
   974  002E                     ?___flmul:	
   975                           ; 1 bytes @ 0xE
   976                           
   977  002E                     I2C_Master_Init@c:	
   978                           ; 4 bytes @ 0xE
   979                           
   980  002E                     ___flmul@b:	
   981                           ; 4 bytes @ 0xE
   982                           
   983                           
   984                           ; 4 bytes @ 0xE
   985  002E                     	ds	4
   986  0032                     ??_I2C_Master_Init:
   987  0032                     ___flmul@a:	
   988                           ; 1 bytes @ 0x12
   989                           
   990                           
   991                           ; 4 bytes @ 0x12
   992  0032                     	ds	4
   993  0036                     ??_setup:
   994  0036                     ??___flmul:	
   995                           ; 1 bytes @ 0x16
   996                           
   997                           
   998                           ; 1 bytes @ 0x16
   999  0036                     	ds	5
  1000  003B                     ___flmul@sign:
  1001                           
  1002                           ; 1 bytes @ 0x1B
  1003  003B                     	ds	1
  1004  003C                     ___flmul@grs:
  1005                           
  1006                           ; 4 bytes @ 0x1C
  1007  003C                     	ds	4
  1008  0040                     ___flmul@aexp:
  1009                           
  1010                           ; 1 bytes @ 0x20
  1011  0040                     	ds	1
  1012  0041                     ___flmul@bexp:
  1013                           
  1014                           ; 1 bytes @ 0x21
  1015  0041                     	ds	1
  1016  0042                     ___flmul@prod:
  1017                           
  1018                           ; 4 bytes @ 0x22
  1019  0042                     	ds	4
  1020  0046                     ___flmul@temp:
  1021                           
  1022                           ; 2 bytes @ 0x26
  1023  0046                     	ds	2
  1024  0048                     ?___fltol:
  1025  0048                     ___fltol@f1:	
  1026                           ; 4 bytes @ 0x28
  1027                           
  1028                           
  1029                           ; 4 bytes @ 0x28
  1030  0048                     	ds	4
  1031  004C                     ??___fltol:
  1032                           
  1033                           ; 1 bytes @ 0x2C
  1034  004C                     	ds	5
  1035  0051                     ___fltol@sign1:
  1036                           
  1037                           ; 1 bytes @ 0x31
  1038  0051                     	ds	1
  1039  0052                     ___fltol@exp1:
  1040                           
  1041                           ; 1 bytes @ 0x32
  1042  0052                     	ds	1
  1043  0053                     ??_main:
  1044                           
  1045                           ; 1 bytes @ 0x33
  1046  0053                     	ds	3
  1047                           
  1048                           	psect	maintext
  1049  038F                     __pmaintext:	
  1050 ;;
  1051 ;;Main: autosize = 0, tempsize = 3, incstack = 0, save=0
  1052 ;;
  1053 ;; *************** function _main *****************
  1054 ;; Defined at:
  1055 ;;		line 214 in file "master_main.c"
  1056 ;; Parameters:    Size  Location     Type
  1057 ;;		None
  1058 ;; Auto vars:     Size  Location     Type
  1059 ;;		None
  1060 ;; Return value:  Size  Location     Type
  1061 ;;                  1    wreg      void 
  1062 ;; Registers used:
  1063 ;;		wreg, fsr0l, fsr0h, status,2, status,0, btemp+1, pclath, cstack
  1064 ;; Tracked objects:
  1065 ;;		On entry : B00/0
  1066 ;;		On exit  : 0/0
  1067 ;;		Unchanged: 0/0
  1068 ;; Data sizes:     COMMON   BANK0   BANK1   BANK3   BANK2
  1069 ;;      Params:         0       0       0       0       0
  1070 ;;      Locals:         0       0       0       0       0
  1071 ;;      Temps:          0       3       0       0       0
  1072 ;;      Totals:         0       3       0       0       0
  1073 ;;Total ram usage:        3 bytes
  1074 ;; Hardware stack levels required when called:    5
  1075 ;; This function calls:
  1076 ;;		_I2C_Master_Read
  1077 ;;		_I2C_Master_Start
  1078 ;;		_I2C_Master_Stop
  1079 ;;		_I2C_Master_Write
  1080 ;;		_Lcd_Clear
  1081 ;;		_Lcd_Init
  1082 ;;		_Lcd_Set_Cursor
  1083 ;;		_Lcd_Write_Char
  1084 ;;		_Lcd_Write_String
  1085 ;;		_VAL
  1086 ;;		___flmul
  1087 ;;		___fltol
  1088 ;;		___xxtofl
  1089 ;;		_alarmaBuzzer
  1090 ;;		_moverVentilador
  1091 ;;		_setup
  1092 ;; This function is called by:
  1093 ;;		Startup code after reset
  1094 ;; This function uses a non-reentrant model
  1095 ;;
  1096                           
  1097                           
  1098                           ;psect for function _main
  1099  038F                     _main:
  1100  038F                     l2421:	
  1101                           ;incstack = 0
  1102                           ; Regs used in _main: [wreg-fsr0h+status,2+status,0+btemp+1+pclath+cstack]
  1103                           
  1104                           
  1105                           ;master_main.c: 215: 
  1106  038F  120A  158A  26A8  120A  118A  	fcall	_setup
  1107                           
  1108                           ;master_main.c: 216:         if(valor_ADC>0x190){
  1109  0394  120A  118A  27A9  120A  118A  	fcall	_Lcd_Init
  1110                           
  1111                           ;master_main.c: 217:             valor_Servo = 0x00;
  1112  0399  120A  158A  242B  120A  118A  	fcall	_Lcd_Clear
  1113                           
  1114                           ;master_main.c: 218:             CCPR2L = (valor_Servo>>1) + 128;
  1115  039E  1283               	bcf	3,5	;RP0=0, select bank0
  1116  039F  1303               	bcf	3,6	;RP1=0, select bank0
  1117  03A0  01A4               	clrf	Lcd_Set_Cursor@b
  1118  03A1  0AA4               	incf	Lcd_Set_Cursor@b,f
  1119  03A2  3001               	movlw	1
  1120  03A3  120A  158A  25E8  120A  118A  	fcall	_Lcd_Set_Cursor
  1121  03A8                     l2423:
  1122                           
  1123                           ;master_main.c: 219:             CCP2CONbits.DC2B1 = 0;
  1124  03A8  3001               	movlw	(low ((STR_1-__stringbase)| (0+32768)))& (0+255)
  1125  03A9  120A  158A  24E4  120A  118A  	fcall	_Lcd_Write_String
  1126  03AE                     l2425:
  1127                           
  1128                           ;master_main.c: 222:             valor_Servo = 0xFF;
  1129  03AE  120A  158A  240B  120A  118A  	fcall	_I2C_Master_Start
  1130  03B3                     l2427:
  1131                           
  1132                           ;master_main.c: 223:             CCPR2L = (valor_Servo>>1) + 128;
  1133  03B3  3071               	movlw	113
  1134  03B4  1283               	bcf	3,5	;RP0=0, select bank0
  1135  03B5  1303               	bcf	3,6	;RP1=0, select bank0
  1136  03B6  00A0               	movwf	I2C_Master_Write@d
  1137  03B7  3000               	movlw	0
  1138  03B8  00A1               	movwf	I2C_Master_Write@d+1
  1139  03B9  120A  158A  2414  120A  118A  	fcall	_I2C_Master_Write
  1140  03BE                     l2429:
  1141                           
  1142                           ;master_main.c: 224:             CCP2CONbits.DC2B1 = 0;
  1143  03BE  3000               	movlw	0
  1144  03BF  1283               	bcf	3,5	;RP0=0, select bank0
  1145  03C0  1303               	bcf	3,6	;RP1=0, select bank0
  1146  03C1  00A0               	movwf	I2C_Master_Read@a
  1147  03C2  00A1               	movwf	I2C_Master_Read@a+1
  1148  03C3  120A  158A  2536  120A  118A  	fcall	_I2C_Master_Read
  1149  03C8  1283               	bcf	3,5	;RP0=0, select bank0
  1150  03C9  1303               	bcf	3,6	;RP1=0, select bank0
  1151  03CA  0821               	movf	?_I2C_Master_Read+1,w
  1152  03CB  00D7               	movwf	_valor_ADC+1
  1153  03CC  0820               	movf	?_I2C_Master_Read,w
  1154  03CD  00D6               	movwf	_valor_ADC
  1155  03CE                     l2431:
  1156                           
  1157                           ;master_main.c: 225:             CCP2CONbits.DC2B0 = 0;
  1158  03CE  120A  118A  27F7  120A  118A  	fcall	_I2C_Master_Stop
  1159  03D3                     l2433:
  1160                           
  1161                           ;master_main.c: 226:         }
  1162  03D3  3004               	movlw	4
  1163  03D4  1283               	bcf	3,5	;RP0=0, select bank0
  1164  03D5  1303               	bcf	3,6	;RP1=0, select bank0
  1165  03D6  00D5               	movwf	??_main+2
  1166  03D7  3026               	movlw	38
  1167  03D8  00D4               	movwf	??_main+1
  1168  03D9  302C               	movlw	44
  1169  03DA  00D3               	movwf	??_main
  1170  03DB                     u2397:
  1171  03DB  0BD3               	decfsz	??_main,f
  1172  03DC  2BDB               	goto	u2397
  1173  03DD  0BD4               	decfsz	??_main+1,f
  1174  03DE  2BDB               	goto	u2397
  1175  03DF  0BD5               	decfsz	??_main+2,f
  1176  03E0  2BDB               	goto	u2397
  1177  03E1  0000               	nop
  1178  03E2                     l2435:
  1179                           
  1180                           ;master_main.c: 229:         Lcd_Set_Cursor(2,1);
  1181  03E2  120A  158A  240B  120A  118A  	fcall	_I2C_Master_Start
  1182  03E7                     l2437:
  1183                           
  1184                           ;master_main.c: 230:         Lcd_Write_Char(POS1_LDR);
  1185  03E7  3081               	movlw	129
  1186  03E8  1283               	bcf	3,5	;RP0=0, select bank0
  1187  03E9  1303               	bcf	3,6	;RP1=0, select bank0
  1188  03EA  00A0               	movwf	I2C_Master_Write@d
  1189  03EB  3000               	movlw	0
  1190  03EC  00A1               	movwf	I2C_Master_Write@d+1
  1191  03ED  120A  158A  2414  120A  118A  	fcall	_I2C_Master_Write
  1192  03F2                     l2439:
  1193                           
  1194                           ;master_main.c: 231:         Lcd_Write_Char(46);
  1195  03F2  3000               	movlw	0
  1196  03F3  1283               	bcf	3,5	;RP0=0, select bank0
  1197  03F4  1303               	bcf	3,6	;RP1=0, select bank0
  1198  03F5  00A0               	movwf	I2C_Master_Read@a
  1199  03F6  00A1               	movwf	I2C_Master_Read@a+1
  1200  03F7  120A  158A  2536  120A  118A  	fcall	_I2C_Master_Read
  1201  03FC  1283               	bcf	3,5	;RP0=0, select bank0
  1202  03FD  1303               	bcf	3,6	;RP1=0, select bank0
  1203  03FE  0821               	movf	?_I2C_Master_Read+1,w
  1204  03FF  1683               	bsf	3,5	;RP0=1, select bank1
  1205  0400  1303               	bcf	3,6	;RP1=0, select bank1
  1206  0401  00A1               	movwf	(_T_byte1+1)^(0+128)
  1207  0402  1283               	bcf	3,5	;RP0=0, select bank0
  1208  0403  1303               	bcf	3,6	;RP1=0, select bank0
  1209  0404  0820               	movf	?_I2C_Master_Read,w
  1210  0405  1683               	bsf	3,5	;RP0=1, select bank1
  1211  0406  1303               	bcf	3,6	;RP1=0, select bank1
  1212  0407  00A0               	movwf	_T_byte1^(0+128)
  1213  0408                     l2441:
  1214                           
  1215                           ;master_main.c: 232:         Lcd_Write_Char(POS2_LDR);
  1216  0408  120A  118A  27F7  120A  118A  	fcall	_I2C_Master_Stop
  1217  040D                     l2443:
  1218                           
  1219                           ;master_main.c: 233:         Lcd_Write_Char(POS3_LDR);
  1220  040D  3004               	movlw	4
  1221  040E  1283               	bcf	3,5	;RP0=0, select bank0
  1222  040F  1303               	bcf	3,6	;RP1=0, select bank0
  1223  0410  00D5               	movwf	??_main+2
  1224  0411  3026               	movlw	38
  1225  0412  00D4               	movwf	??_main+1
  1226  0413  302C               	movlw	44
  1227  0414  00D3               	movwf	??_main
  1228  0415                     u2407:
  1229  0415  0BD3               	decfsz	??_main,f
  1230  0416  2C15               	goto	u2407
  1231  0417  0BD4               	decfsz	??_main+1,f
  1232  0418  2C15               	goto	u2407
  1233  0419  0BD5               	decfsz	??_main+2,f
  1234  041A  2C15               	goto	u2407
  1235  041B  0000               	nop
  1236  041C                     l2445:
  1237                           
  1238                           ;master_main.c: 235: 
  1239  041C  120A  158A  2438  120A  118A  	fcall	_moverVentilador
  1240  0421                     l2447:
  1241                           
  1242                           ;master_main.c: 237:         POS1_TMP = POS1;
  1243  0421  120A  158A  240B  120A  118A  	fcall	_I2C_Master_Start
  1244  0426                     l2449:
  1245                           
  1246                           ;master_main.c: 238:         POS2_TMP = POS2;
  1247  0426  3071               	movlw	113
  1248  0427  1283               	bcf	3,5	;RP0=0, select bank0
  1249  0428  1303               	bcf	3,6	;RP1=0, select bank0
  1250  0429  00A0               	movwf	I2C_Master_Write@d
  1251  042A  3000               	movlw	0
  1252  042B  00A1               	movwf	I2C_Master_Write@d+1
  1253  042C  120A  158A  2414  120A  118A  	fcall	_I2C_Master_Write
  1254  0431                     l2451:
  1255                           
  1256                           ;master_main.c: 239:         POS3_TMP = POS3;
  1257  0431  3000               	movlw	0
  1258  0432  1283               	bcf	3,5	;RP0=0, select bank0
  1259  0433  1303               	bcf	3,6	;RP1=0, select bank0
  1260  0434  00A0               	movwf	I2C_Master_Read@a
  1261  0435  00A1               	movwf	I2C_Master_Read@a+1
  1262  0436  120A  158A  2536  120A  118A  	fcall	_I2C_Master_Read
  1263  043B  1283               	bcf	3,5	;RP0=0, select bank0
  1264  043C  1303               	bcf	3,6	;RP1=0, select bank0
  1265  043D  0820               	movf	?_I2C_Master_Read,w
  1266  043E  00D3               	movwf	??_main
  1267  043F  0853               	movf	??_main,w
  1268  0440  00E3               	movwf	_alarma
  1269  0441                     l2453:
  1270                           
  1271                           ;master_main.c: 240:         Lcd_Write_Char(POS1_TMP);
  1272  0441  120A  118A  27F7  120A  118A  	fcall	_I2C_Master_Stop
  1273  0446                     l2455:
  1274                           
  1275                           ;master_main.c: 241:         Lcd_Write_Char(POS2_TMP);
  1276  0446  3004               	movlw	4
  1277  0447  1283               	bcf	3,5	;RP0=0, select bank0
  1278  0448  1303               	bcf	3,6	;RP1=0, select bank0
  1279  0449  00D5               	movwf	??_main+2
  1280  044A  3026               	movlw	38
  1281  044B  00D4               	movwf	??_main+1
  1282  044C  302C               	movlw	44
  1283  044D  00D3               	movwf	??_main
  1284  044E                     u2417:
  1285  044E  0BD3               	decfsz	??_main,f
  1286  044F  2C4E               	goto	u2417
  1287  0450  0BD4               	decfsz	??_main+1,f
  1288  0451  2C4E               	goto	u2417
  1289  0452  0BD5               	decfsz	??_main+2,f
  1290  0453  2C4E               	goto	u2417
  1291  0454  0000               	nop
  1292  0455                     l2457:
  1293                           
  1294                           ;master_main.c: 243:         Lcd_Write_String("\337C  ");
  1295  0455  1283               	bcf	3,5	;RP0=0, select bank0
  1296  0456  1303               	bcf	3,6	;RP1=0, select bank0
  1297  0457  0A63               	incf	_alarma,w
  1298  0458  1D03               	btfss	3,2
  1299  0459  2C5B               	goto	u2341
  1300  045A  2C5C               	goto	u2340
  1301  045B                     u2341:
  1302  045B  2C66               	goto	l2463
  1303  045C                     u2340:
  1304  045C                     l2459:
  1305                           
  1306                           ;master_main.c: 244: 
  1307  045C  120A  158A  249C  120A  118A  	fcall	_alarmaBuzzer
  1308  0461                     l2461:
  1309                           
  1310                           ;master_main.c: 245:         VAL(TEMP);
  1311  0461  1283               	bcf	3,5	;RP0=0, select bank0
  1312  0462  1303               	bcf	3,6	;RP1=0, select bank0
  1313  0463  01DD               	clrf	_bandera_buzzer
  1314  0464  0ADD               	incf	_bandera_buzzer,f
  1315                           
  1316                           ;master_main.c: 246:         Lcd_Write_Char(POS1_BZ);
  1317  0465  2C73               	goto	l2471
  1318  0466                     l2463:
  1319                           
  1320                           ;master_main.c: 247:         Lcd_Write_Char(POS2_BZ);
  1321  0466  01DD               	clrf	_bandera_buzzer
  1322  0467                     l2465:
  1323                           
  1324                           ;master_main.c: 248:         Lcd_Write_Char(POS3_BZ);
  1325  0467  302D               	movlw	45
  1326  0468  00D3               	movwf	??_main
  1327  0469  0853               	movf	??_main,w
  1328  046A  00E6               	movwf	_POS1_BZ
  1329  046B                     l2467:
  1330                           
  1331                           ;master_main.c: 249:         Lcd_Write_String("");
  1332  046B  302D               	movlw	45
  1333  046C  00D3               	movwf	??_main
  1334  046D  0853               	movf	??_main,w
  1335  046E  00E5               	movwf	_POS2_BZ
  1336  046F                     l2469:
  1337                           
  1338                           ;master_main.c: 250: 
  1339  046F  302D               	movlw	45
  1340  0470  00D3               	movwf	??_main
  1341  0471  0853               	movf	??_main,w
  1342  0472  00E4               	movwf	_POS3_BZ
  1343  0473                     l2471:
  1344                           
  1345                           ;master_main.c: 253:          cont = 0;
  1346  0473  0856               	movf	_valor_ADC,w
  1347  0474  00A0               	movwf	___xxtofl@val
  1348  0475  0857               	movf	_valor_ADC+1,w
  1349  0476  00A1               	movwf	___xxtofl@val+1
  1350  0477  01A2               	clrf	___xxtofl@val+2
  1351  0478  01A3               	clrf	___xxtofl@val+3
  1352  0479  3000               	movlw	0
  1353  047A  120A  118A  26ED  120A  118A  	fcall	___xxtofl
  1354  047F  1283               	bcf	3,5	;RP0=0, select bank0
  1355  0480  1303               	bcf	3,6	;RP1=0, select bank0
  1356  0481  0823               	movf	?___xxtofl+3,w
  1357  0482  00B5               	movwf	___flmul@a+3
  1358  0483  0822               	movf	?___xxtofl+2,w
  1359  0484  00B4               	movwf	___flmul@a+2
  1360  0485  0821               	movf	?___xxtofl+1,w
  1361  0486  00B3               	movwf	___flmul@a+1
  1362  0487  0820               	movf	?___xxtofl,w
  1363  0488  00B2               	movwf	___flmul@a
  1364  0489  303F               	movlw	63
  1365  048A  00B1               	movwf	___flmul@b+3
  1366  048B  30FB               	movlw	251
  1367  048C  00B0               	movwf	___flmul@b+2
  1368  048D  3002               	movlw	2
  1369  048E  00AF               	movwf	___flmul@b+1
  1370  048F  300C               	movlw	12
  1371  0490  00AE               	movwf	___flmul@b
  1372  0491  120A  118A  202E  120A  118A  	fcall	___flmul
  1373  0496  1283               	bcf	3,5	;RP0=0, select bank0
  1374  0497  1303               	bcf	3,6	;RP1=0, select bank0
  1375  0498  0831               	movf	?___flmul+3,w
  1376  0499  00CB               	movwf	___fltol@f1+3
  1377  049A  0830               	movf	?___flmul+2,w
  1378  049B  00CA               	movwf	___fltol@f1+2
  1379  049C  082F               	movf	?___flmul+1,w
  1380  049D  00C9               	movwf	___fltol@f1+1
  1381  049E  082E               	movf	?___flmul,w
  1382  049F  00C8               	movwf	___fltol@f1
  1383  04A0  120A  158A  2784  120A  118A  	fcall	___fltol
  1384  04A5  1283               	bcf	3,5	;RP0=0, select bank0
  1385  04A6  1303               	bcf	3,6	;RP1=0, select bank0
  1386  04A7  0849               	movf	?___fltol+1,w
  1387  04A8  00D7               	movwf	_valor_ADC+1
  1388  04A9  0848               	movf	?___fltol,w
  1389  04AA  00D6               	movwf	_valor_ADC
  1390  04AB                     l2473:
  1391                           
  1392                           ;master_main.c: 256: 
  1393  04AB  0857               	movf	_valor_ADC+1,w
  1394  04AC  00A9               	movwf	VAL@variable+1
  1395  04AD  0856               	movf	_valor_ADC,w
  1396  04AE  00A8               	movwf	VAL@variable
  1397  04AF  120A  158A  2710  120A  118A  	fcall	_VAL
  1398  04B4                     l2475:
  1399                           
  1400                           ;master_main.c: 257: 
  1401  04B4  1283               	bcf	3,5	;RP0=0, select bank0
  1402  04B5  1303               	bcf	3,6	;RP1=0, select bank0
  1403  04B6  086E               	movf	_POS1,w
  1404  04B7  00D3               	movwf	??_main
  1405  04B8  0853               	movf	??_main,w
  1406  04B9  00FD               	movwf	_POS1_LDR
  1407  04BA                     l2477:
  1408                           
  1409                           ;master_main.c: 258:         if (PORTBbits.RB1 == 1){
  1410  04BA  086D               	movf	_POS2,w
  1411  04BB  00D3               	movwf	??_main
  1412  04BC  0853               	movf	??_main,w
  1413  04BD  00EB               	movwf	_POS2_LDR
  1414  04BE                     l2479:
  1415                           
  1416                           ;master_main.c: 259:             val_USART = 0;
  1417  04BE  086C               	movf	_POS3,w
  1418  04BF  00D3               	movwf	??_main
  1419  04C0  0853               	movf	??_main,w
  1420  04C1  00EA               	movwf	_POS3_LDR
  1421  04C2                     l2481:
  1422                           
  1423                           ;master_main.c: 262:             u_flag = 1;
  1424  04C2  3001               	movlw	1
  1425  04C3  0257               	subwf	_valor_ADC+1,w
  1426  04C4  3091               	movlw	145
  1427  04C5  1903               	skipnz
  1428  04C6  0256               	subwf	_valor_ADC,w
  1429  04C7  1C03               	skipc
  1430  04C8  2CCA               	goto	u2351
  1431  04C9  2CCB               	goto	u2350
  1432  04CA                     u2351:
  1433  04CA  2CD1               	goto	l2491
  1434  04CB                     u2350:
  1435  04CB                     l2483:
  1436                           
  1437                           ;master_main.c: 263:             d_flag = 0;
  1438  04CB  01D8               	clrf	_valor_Servo
  1439  04CC                     l2485:
  1440                           
  1441                           ;master_main.c: 264:             c_flag = 0;
  1442  04CC  3080               	movlw	128
  1443  04CD  009B               	movwf	27	;volatile
  1444  04CE                     l2487:
  1445                           
  1446                           ;master_main.c: 265:         }
  1447  04CE  129D               	bcf	29,5	;volatile
  1448  04CF                     l2489:
  1449                           
  1450                           ;master_main.c: 266: 
  1451  04CF  121D               	bcf	29,4	;volatile
  1452                           
  1453                           ;master_main.c: 267:     }
  1454  04D0  2CE2               	goto	l2501
  1455  04D1                     l2491:
  1456  04D1  3001               	movlw	1
  1457  04D2  0257               	subwf	_valor_ADC+1,w
  1458  04D3  3091               	movlw	145
  1459  04D4  1903               	skipnz
  1460  04D5  0256               	subwf	_valor_ADC,w
  1461  04D6  1803               	skipnc
  1462  04D7  2CD9               	goto	u2361
  1463  04D8  2CDA               	goto	u2360
  1464  04D9                     u2361:
  1465  04D9  2CE2               	goto	l2501
  1466  04DA                     u2360:
  1467  04DA                     l2493:
  1468                           
  1469                           ;master_main.c: 268: }
  1470  04DA  30FF               	movlw	255
  1471  04DB  00D3               	movwf	??_main
  1472  04DC  0853               	movf	??_main,w
  1473  04DD  00D8               	movwf	_valor_Servo
  1474  04DE                     l2495:
  1475                           
  1476                           ;master_main.c: 269: 
  1477  04DE  30FF               	movlw	255
  1478  04DF  009B               	movwf	27	;volatile
  1479  04E0                     l2497:
  1480                           
  1481                           ;master_main.c: 270: void setup(void){
  1482  04E0  129D               	bcf	29,5	;volatile
  1483  04E1                     l2499:
  1484                           
  1485                           ;master_main.c: 271: 
  1486  04E1  121D               	bcf	29,4	;volatile
  1487  04E2                     l2501:
  1488                           
  1489                           ;master_main.c: 275:     OSCCONbits.IRCF0 = 1;
  1490  04E2  01A4               	clrf	Lcd_Set_Cursor@b
  1491  04E3  0AA4               	incf	Lcd_Set_Cursor@b,f
  1492  04E4  3002               	movlw	2
  1493  04E5  120A  158A  25E8  120A  118A  	fcall	_Lcd_Set_Cursor
  1494  04EA                     l2503:
  1495                           
  1496                           ;master_main.c: 276:     OSCCONbits.SCS = 1;
  1497  04EA  087D               	movf	_POS1_LDR,w
  1498  04EB  120A  158A  247C  120A  118A  	fcall	_Lcd_Write_Char
  1499  04F0                     l2505:
  1500                           
  1501                           ;master_main.c: 277: 
  1502  04F0  302E               	movlw	46
  1503  04F1  120A  158A  247C  120A  118A  	fcall	_Lcd_Write_Char
  1504  04F6                     l2507:
  1505                           
  1506                           ;master_main.c: 278: 
  1507  04F6  1283               	bcf	3,5	;RP0=0, select bank0
  1508  04F7  1303               	bcf	3,6	;RP1=0, select bank0
  1509  04F8  086B               	movf	_POS2_LDR,w
  1510  04F9  120A  158A  247C  120A  118A  	fcall	_Lcd_Write_Char
  1511  04FE                     l2509:
  1512                           
  1513                           ;master_main.c: 279:     ANSEL = 0B0000000;
  1514  04FE  1283               	bcf	3,5	;RP0=0, select bank0
  1515  04FF  1303               	bcf	3,6	;RP1=0, select bank0
  1516  0500  086A               	movf	_POS3_LDR,w
  1517  0501  120A  158A  247C  120A  118A  	fcall	_Lcd_Write_Char
  1518  0506                     l2511:
  1519                           
  1520                           ;master_main.c: 280:     ANSELH = 0X00;
  1521  0506  3017               	movlw	(low ((STR_2-__stringbase)| (0+32768)))& (0+255)
  1522  0507  120A  158A  24E4  120A  118A  	fcall	_Lcd_Write_String
  1523  050C                     l2513:
  1524                           
  1525                           ;master_main.c: 282:     TRISA = 0B0000000;
  1526  050C  1683               	bsf	3,5	;RP0=1, select bank1
  1527  050D  1303               	bcf	3,6	;RP1=0, select bank1
  1528  050E  0821               	movf	(_T_byte1+1)^(0+128),w
  1529  050F  1283               	bcf	3,5	;RP0=0, select bank0
  1530  0510  1303               	bcf	3,6	;RP1=0, select bank0
  1531  0511  00A9               	movwf	VAL@variable+1
  1532  0512  1683               	bsf	3,5	;RP0=1, select bank1
  1533  0513  1303               	bcf	3,6	;RP1=0, select bank1
  1534  0514  0820               	movf	_T_byte1^(0+128),w
  1535  0515  1283               	bcf	3,5	;RP0=0, select bank0
  1536  0516  1303               	bcf	3,6	;RP1=0, select bank0
  1537  0517  00A8               	movwf	VAL@variable
  1538  0518  120A  158A  2710  120A  118A  	fcall	_VAL
  1539  051D                     l2515:
  1540                           
  1541                           ;master_main.c: 283:     TRISD = 0X00;
  1542  051D  1283               	bcf	3,5	;RP0=0, select bank0
  1543  051E  1303               	bcf	3,6	;RP1=0, select bank0
  1544  051F  086E               	movf	_POS1,w
  1545  0520  00D3               	movwf	??_main
  1546  0521  0853               	movf	??_main,w
  1547  0522  00E9               	movwf	_POS1_TMP
  1548  0523                     l2517:
  1549                           
  1550                           ;master_main.c: 284:     TRISE = 0X00;
  1551  0523  086D               	movf	_POS2,w
  1552  0524  00D3               	movwf	??_main
  1553  0525  0853               	movf	??_main,w
  1554  0526  00E8               	movwf	_POS2_TMP
  1555  0527                     l2519:
  1556                           
  1557                           ;master_main.c: 285:     TRISB = 0X00;
  1558  0527  086C               	movf	_POS3,w
  1559  0528  00D3               	movwf	??_main
  1560  0529  0853               	movf	??_main,w
  1561  052A  00E7               	movwf	_POS3_TMP
  1562  052B                     l2521:
  1563                           
  1564                           ;master_main.c: 286:     TRISCbits.TRISC1= 0X00;
  1565  052B  0869               	movf	_POS1_TMP,w
  1566  052C  120A  158A  247C  120A  118A  	fcall	_Lcd_Write_Char
  1567  0531                     l2523:
  1568                           
  1569                           ;master_main.c: 287: 
  1570  0531  1283               	bcf	3,5	;RP0=0, select bank0
  1571  0532  1303               	bcf	3,6	;RP1=0, select bank0
  1572  0533  0868               	movf	_POS2_TMP,w
  1573  0534  120A  158A  247C  120A  118A  	fcall	_Lcd_Write_Char
  1574  0539                     l2525:
  1575                           
  1576                           ;master_main.c: 288:     PORTA = 0X00;
  1577  0539  1283               	bcf	3,5	;RP0=0, select bank0
  1578  053A  1303               	bcf	3,6	;RP1=0, select bank0
  1579  053B  0867               	movf	_POS3_TMP,w
  1580  053C  120A  158A  247C  120A  118A  	fcall	_Lcd_Write_Char
  1581  0541                     l2527:
  1582                           
  1583                           ;master_main.c: 289:     PORTB = 0X00;
  1584  0541  3012               	movlw	(low ((STR_3-__stringbase)| (0+32768)))& (0+255)
  1585  0542  120A  158A  24E4  120A  118A  	fcall	_Lcd_Write_String
  1586  0547                     l2529:
  1587                           
  1588                           ;master_main.c: 291:     PORTC = 0X00;
  1589  0547  3000               	movlw	0
  1590  0548  1283               	bcf	3,5	;RP0=0, select bank0
  1591  0549  1303               	bcf	3,6	;RP1=0, select bank0
  1592  054A  00A8               	movwf	VAL@variable
  1593  054B  00A9               	movwf	VAL@variable+1
  1594  054C  120A  158A  2710  120A  118A  	fcall	_VAL
  1595  0551                     l2531:
  1596                           
  1597                           ;master_main.c: 292:     PORTD = 0X00;
  1598  0551  1283               	bcf	3,5	;RP0=0, select bank0
  1599  0552  1303               	bcf	3,6	;RP1=0, select bank0
  1600  0553  0866               	movf	_POS1_BZ,w
  1601  0554  120A  158A  247C  120A  118A  	fcall	_Lcd_Write_Char
  1602  0559                     l2533:
  1603                           
  1604                           ;master_main.c: 293:     PORTE = 0X00;
  1605  0559  1283               	bcf	3,5	;RP0=0, select bank0
  1606  055A  1303               	bcf	3,6	;RP1=0, select bank0
  1607  055B  0865               	movf	_POS2_BZ,w
  1608  055C  120A  158A  247C  120A  118A  	fcall	_Lcd_Write_Char
  1609  0561                     l2535:
  1610                           
  1611                           ;master_main.c: 294: 
  1612  0561  1283               	bcf	3,5	;RP0=0, select bank0
  1613  0562  1303               	bcf	3,6	;RP1=0, select bank0
  1614  0563  0864               	movf	_POS3_BZ,w
  1615  0564  120A  158A  247C  120A  118A  	fcall	_Lcd_Write_Char
  1616  0569                     l2537:
  1617                           
  1618                           ;master_main.c: 295: 
  1619  0569  3016               	movlw	(low (((STR_3+4)-__stringbase)| (0+32768)))& (0+255)
  1620  056A  120A  158A  24E4  120A  118A  	fcall	_Lcd_Write_String
  1621  056F                     l2539:
  1622                           
  1623                           ;master_main.c: 298: 
  1624  056F  3010               	movlw	16
  1625  0570  1283               	bcf	3,5	;RP0=0, select bank0
  1626  0571  1303               	bcf	3,6	;RP1=0, select bank0
  1627  0572  025E               	subwf	_cont,w
  1628  0573  1C03               	skipc
  1629  0574  2D76               	goto	u2371
  1630  0575  2D77               	goto	u2370
  1631  0576                     u2371:
  1632  0576  2D7B               	goto	l2545
  1633  0577                     u2370:
  1634  0577                     l2541:
  1635                           
  1636                           ;master_main.c: 299:     INTCONbits.T0IE = 1;
  1637  0577  01DE               	clrf	_cont
  1638  0578                     l2543:
  1639                           
  1640                           ;master_main.c: 300:     INTCONbits.T0IF = 0;
  1641  0578  1683               	bsf	3,5	;RP0=1, select bank1
  1642  0579  1303               	bcf	3,6	;RP1=0, select bank1
  1643  057A  160C               	bsf	12,4	;volatile
  1644  057B                     l2545:
  1645                           
  1646                           ;master_main.c: 304:     TXSTAbits.SYNC = 0;
  1647  057B  1283               	bcf	3,5	;RP0=0, select bank0
  1648  057C  1C86               	btfss	6,1	;volatile
  1649  057D  2D7F               	goto	u2381
  1650  057E  2D80               	goto	u2380
  1651  057F                     u2381:
  1652  057F  2BAE               	goto	l2425
  1653  0580                     u2380:
  1654  0580                     l2547:
  1655                           
  1656                           ;master_main.c: 305:     TXSTAbits.BRGH = 1;
  1657  0580  01FB               	clrf	_val_USART
  1658                           
  1659                           ;master_main.c: 306: 
  1660  0581  01E1               	clrf	_contador
  1661                           
  1662                           ;master_main.c: 307:     BAUDCTLbits.BRG16 = 1;
  1663  0582  0186               	clrf	6	;volatile
  1664  0583                     l2549:
  1665                           
  1666                           ;master_main.c: 308: 
  1667  0583  01EF               	clrf	_u_flag
  1668  0584  0AEF               	incf	_u_flag,f
  1669                           
  1670                           ;master_main.c: 309:     SPBRG = 207;
  1671  0585  01DC               	clrf	_d_flag
  1672                           
  1673                           ;master_main.c: 310:     SPBRGH = 0;
  1674  0586  01DB               	clrf	_c_flag
  1675  0587  2BAE               	goto	l2425
  1676  0588  120A  118A  280E   	ljmp	start
  1677  058B                     __end_of_main:
  1678                           
  1679                           	psect	text1
  1680  0EA8                     __ptext1:	
  1681 ;; *************** function _setup *****************
  1682 ;; Defined at:
  1683 ;;		line 316 in file "master_main.c"
  1684 ;; Parameters:    Size  Location     Type
  1685 ;;		None
  1686 ;; Auto vars:     Size  Location     Type
  1687 ;;		None
  1688 ;; Return value:  Size  Location     Type
  1689 ;;                  1    wreg      void 
  1690 ;; Registers used:
  1691 ;;		wreg, status,2, status,0, pclath, cstack
  1692 ;; Tracked objects:
  1693 ;;		On entry : 0/0
  1694 ;;		On exit  : 0/0
  1695 ;;		Unchanged: 0/0
  1696 ;; Data sizes:     COMMON   BANK0   BANK1   BANK3   BANK2
  1697 ;;      Params:         0       0       0       0       0
  1698 ;;      Locals:         0       0       0       0       0
  1699 ;;      Temps:          0       0       0       0       0
  1700 ;;      Totals:         0       0       0       0       0
  1701 ;;Total ram usage:        0 bytes
  1702 ;; Hardware stack levels used:    1
  1703 ;; Hardware stack levels required when called:    4
  1704 ;; This function calls:
  1705 ;;		_I2C_Master_Init
  1706 ;; This function is called by:
  1707 ;;		_main
  1708 ;; This function uses a non-reentrant model
  1709 ;;
  1710                           
  1711                           
  1712                           ;psect for function _setup
  1713  0EA8                     _setup:
  1714  0EA8                     l1965:	
  1715                           ;incstack = 0
  1716                           ; Regs used in _setup: [wreg+status,2+status,0+pclath+cstack]
  1717                           
  1718                           
  1719                           ;master_main.c: 319:     OPTION_REGbits.T0CS = 0;
  1720  0EA8  1683               	bsf	3,5	;RP0=1, select bank1
  1721  0EA9  1303               	bcf	3,6	;RP1=0, select bank1
  1722  0EAA  170F               	bsf	15,6	;volatile
  1723                           
  1724                           ;master_main.c: 320:     OPTION_REGbits.PSA = 0;
  1725  0EAB  168F               	bsf	15,5	;volatile
  1726                           
  1727                           ;master_main.c: 321:     OPTION_REGbits.PS = 0b111;
  1728  0EAC  160F               	bsf	15,4	;volatile
  1729                           
  1730                           ;master_main.c: 322:     TMR0 = 10;
  1731  0EAD  140F               	bsf	15,0	;volatile
  1732  0EAE                     l1967:
  1733                           
  1734                           ;master_main.c: 325: 
  1735  0EAE  1683               	bsf	3,5	;RP0=1, select bank3
  1736  0EAF  1703               	bsf	3,6	;RP1=1, select bank3
  1737  0EB0  0188               	clrf	8	;volatile
  1738                           
  1739                           ;master_main.c: 326:     PR2 = 250;
  1740  0EB1  0189               	clrf	9	;volatile
  1741                           
  1742                           ;master_main.c: 328:     CCP1CONbits.CCP1M = 0b00001100;
  1743  0EB2  1683               	bsf	3,5	;RP0=1, select bank1
  1744  0EB3  1303               	bcf	3,6	;RP1=0, select bank1
  1745  0EB4  0185               	clrf	5	;volatile
  1746                           
  1747                           ;master_main.c: 329:     CCP2CONbits.CCP2M = 0b00001100;
  1748  0EB5  0188               	clrf	8	;volatile
  1749                           
  1750                           ;master_main.c: 330: 
  1751  0EB6  0189               	clrf	9	;volatile
  1752                           
  1753                           ;master_main.c: 331:     CCPR1L = 0x0F;
  1754  0EB7  0186               	clrf	6	;volatile
  1755  0EB8                     l1969:
  1756                           
  1757                           ;master_main.c: 332:     CCPR2L = 0x0F;
  1758  0EB8  1087               	bcf	7,1	;volatile
  1759                           
  1760                           ;master_main.c: 334:     CCP2CONbits.DC2B1 = 0;
  1761  0EB9  1283               	bcf	3,5	;RP0=0, select bank0
  1762  0EBA  1303               	bcf	3,6	;RP1=0, select bank0
  1763  0EBB  0185               	clrf	5	;volatile
  1764                           
  1765                           ;master_main.c: 335:     CCP2CONbits.DC2B0 = 0;
  1766  0EBC  0186               	clrf	6	;volatile
  1767                           
  1768                           ;master_main.c: 336: 
  1769  0EBD  0188               	clrf	8	;volatile
  1770                           
  1771                           ;master_main.c: 337:     PIR1bits.TMR2IF = 0;
  1772  0EBE  0187               	clrf	7	;volatile
  1773                           
  1774                           ;master_main.c: 338:     T2CONbits.T2CKPS1 = 1;
  1775  0EBF  0188               	clrf	8	;volatile
  1776                           
  1777                           ;master_main.c: 339:     T2CONbits.T2CKPS0 = 1;
  1778  0EC0  0189               	clrf	9	;volatile
  1779  0EC1                     l1971:
  1780                           
  1781                           ;master_main.c: 342:     while (!PIR1bits.TMR2IF);
  1782  0EC1  178B               	bsf	11,7	;volatile
  1783  0EC2                     l1973:
  1784                           
  1785                           ;master_main.c: 343:     PIR1bits.TMR2IF = 0;
  1786  0EC2  170B               	bsf	11,6	;volatile
  1787  0EC3                     l1975:
  1788                           
  1789                           ;master_main.c: 345: 
  1790  0EC3  168B               	bsf	11,5	;volatile
  1791  0EC4                     l1977:
  1792                           
  1793                           ;master_main.c: 346: 
  1794  0EC4  110B               	bcf	11,2	;volatile
  1795  0EC5                     l1979:
  1796                           
  1797                           ;master_main.c: 350:     uint16_t valor;
  1798  0EC5  1683               	bsf	3,5	;RP0=1, select bank1
  1799  0EC6  1303               	bcf	3,6	;RP1=0, select bank1
  1800  0EC7  1218               	bcf	24,4	;volatile
  1801  0EC8                     l1981:
  1802                           
  1803                           ;master_main.c: 351:     valor = variable;
  1804  0EC8  1518               	bsf	24,2	;volatile
  1805  0EC9                     l1983:
  1806                           
  1807                           ;master_main.c: 353:     valor = (valor - (POS1*100));
  1808  0EC9  1683               	bsf	3,5	;RP0=1, select bank3
  1809  0ECA  1703               	bsf	3,6	;RP1=1, select bank3
  1810  0ECB  1587               	bsf	7,3	;volatile
  1811  0ECC                     l1985:
  1812                           
  1813                           ;master_main.c: 355:     valor = (valor - (POS2*10));
  1814  0ECC  30CF               	movlw	207
  1815  0ECD  1683               	bsf	3,5	;RP0=1, select bank1
  1816  0ECE  1303               	bcf	3,6	;RP1=0, select bank1
  1817  0ECF  0099               	movwf	25	;volatile
  1818  0ED0                     l1987:
  1819                           
  1820                           ;master_main.c: 356:     POS3 = (valor);
  1821  0ED0  019A               	clrf	26	;volatile
  1822  0ED1                     l1989:
  1823                           
  1824                           ;master_main.c: 358:     POS1 = POS1 + 48;
  1825  0ED1  1283               	bcf	3,5	;RP0=0, select bank0
  1826  0ED2  1303               	bcf	3,6	;RP1=0, select bank0
  1827  0ED3  1798               	bsf	24,7	;volatile
  1828  0ED4                     l1991:
  1829                           
  1830                           ;master_main.c: 359:     POS2 = POS2 + 48;
  1831  0ED4  1318               	bcf	24,6	;volatile
  1832  0ED5                     l1993:
  1833                           
  1834                           ;master_main.c: 360:     POS3 = POS3 + 48;
  1835  0ED5  1618               	bsf	24,4	;volatile
  1836  0ED6                     l1995:
  1837                           
  1838                           ;master_main.c: 362: }
  1839  0ED6  1683               	bsf	3,5	;RP0=1, select bank1
  1840  0ED7  1303               	bcf	3,6	;RP1=0, select bank1
  1841  0ED8  1698               	bsf	24,5	;volatile
  1842  0ED9                     l1997:
  1843                           
  1844                           ;master_main.c: 365:     if(T_byte1>0x19){
  1845  0ED9  1281               	bcf	1,5	;volatile
  1846  0EDA                     l1999:
  1847                           
  1848                           ;master_main.c: 366:         PORTAbits.RA0 = 1;
  1849  0EDA  1181               	bcf	1,3	;volatile
  1850  0EDB                     l2001:
  1851                           
  1852                           ;master_main.c: 367:     }else{
  1853  0EDB  3007               	movlw	7
  1854  0EDC  0481               	iorwf	1,f	;volatile
  1855  0EDD                     l2003:
  1856                           
  1857                           ;master_main.c: 368:          PORTAbits.RA0 = 0;
  1858  0EDD  300A               	movlw	10
  1859  0EDE  1283               	bcf	3,5	;RP0=0, select bank0
  1860  0EDF  1303               	bcf	3,6	;RP1=0, select bank0
  1861  0EE0  0081               	movwf	1	;volatile
  1862  0EE1                     l2005:
  1863                           
  1864                           ;master_main.c: 372: void alarmaBuzzer(){
  1865  0EE1  30FA               	movlw	250
  1866  0EE2  1683               	bsf	3,5	;RP0=1, select bank1
  1867  0EE3  1303               	bcf	3,6	;RP1=0, select bank1
  1868  0EE4  0092               	movwf	18	;volatile
  1869  0EE5                     l2007:
  1870                           
  1871                           ;master_main.c: 373: 
  1872  0EE5  303F               	movlw	-193
  1873  0EE6  1283               	bcf	3,5	;RP0=0, select bank0
  1874  0EE7  1303               	bcf	3,6	;RP1=0, select bank0
  1875  0EE8  0597               	andwf	23,f	;volatile
  1876  0EE9                     l2009:
  1877                           
  1878                           ;master_main.c: 374: 
  1879  0EE9  0817               	movf	23,w	;volatile
  1880  0EEA  39F0               	andlw	-16
  1881  0EEB  380C               	iorlw	12
  1882  0EEC  0097               	movwf	23	;volatile
  1883  0EED                     l2011:
  1884                           
  1885                           ;master_main.c: 375:     PORTAbits.RA1 = 1;
  1886  0EED  081D               	movf	29,w	;volatile
  1887  0EEE  39F0               	andlw	-16
  1888  0EEF  380C               	iorlw	12
  1889  0EF0  009D               	movwf	29	;volatile
  1890                           
  1891                           ;master_main.c: 377:     PORTAbits.RA1 = 0;
  1892  0EF1  300F               	movlw	15
  1893  0EF2  0095               	movwf	21	;volatile
  1894                           
  1895                           ;master_main.c: 378:     POS1_BZ = 83;
  1896  0EF3  300F               	movlw	15
  1897  0EF4  009B               	movwf	27	;volatile
  1898  0EF5                     l2013:
  1899                           
  1900                           ;master_main.c: 379:     POS2_BZ = 79;
  1901  0EF5  30CF               	movlw	-49
  1902  0EF6  0597               	andwf	23,f	;volatile
  1903  0EF7                     l2015:
  1904                           
  1905                           ;master_main.c: 380:     POS3_BZ = 83;
  1906  0EF7  129D               	bcf	29,5	;volatile
  1907  0EF8                     l2017:
  1908                           
  1909                           ;master_main.c: 381: 
  1910  0EF8  121D               	bcf	29,4	;volatile
  1911  0EF9                     l2019:
  1912                           
  1913                           ;master_main.c: 383: }
  1914  0EF9  108C               	bcf	12,1	;volatile
  1915  0EFA                     l2021:
  1916  0EFA  1492               	bsf	18,1	;volatile
  1917  0EFB                     l2023:
  1918  0EFB  1412               	bsf	18,0	;volatile
  1919  0EFC                     l2025:
  1920  0EFC  1512               	bsf	18,2	;volatile
  1921  0EFD                     l324:
  1922  0EFD  1C8C               	btfss	12,1	;volatile
  1923  0EFE  2F00               	goto	u1501
  1924  0EFF  2F01               	goto	u1500
  1925  0F00                     u1501:
  1926  0F00  2EFD               	goto	l324
  1927  0F01                     u1500:
  1928  0F01                     l326:
  1929  0F01  108C               	bcf	12,1	;volatile
  1930  0F02                     l2027:
  1931  0F02  3000               	movlw	0
  1932  0F03  00B1               	movwf	I2C_Master_Init@c+3
  1933  0F04  3001               	movlw	1
  1934  0F05  00B0               	movwf	I2C_Master_Init@c+2
  1935  0F06  3086               	movlw	134
  1936  0F07  00AF               	movwf	I2C_Master_Init@c+1
  1937  0F08  30A0               	movlw	160
  1938  0F09  00AE               	movwf	I2C_Master_Init@c
  1939  0F0A  120A  158A  2568  120A  158A  	fcall	_I2C_Master_Init
  1940  0F0F                     l327:
  1941  0F0F  0008               	return
  1942  0F10                     __end_of_setup:
  1943                           
  1944                           	psect	text2
  1945  0D68                     __ptext2:	
  1946 ;; *************** function _I2C_Master_Init *****************
  1947 ;; Defined at:
  1948 ;;		line 16 in file "I2C.c"
  1949 ;; Parameters:    Size  Location     Type
  1950 ;;  c               4   14[BANK0 ] const unsigned long 
  1951 ;; Auto vars:     Size  Location     Type
  1952 ;;		None
  1953 ;; Return value:  Size  Location     Type
  1954 ;;                  1    wreg      void 
  1955 ;; Registers used:
  1956 ;;		wreg, status,2, status,0, pclath, cstack
  1957 ;; Tracked objects:
  1958 ;;		On entry : 0/0
  1959 ;;		On exit  : 0/0
  1960 ;;		Unchanged: 0/0
  1961 ;; Data sizes:     COMMON   BANK0   BANK1   BANK3   BANK2
  1962 ;;      Params:         0       4       0       0       0
  1963 ;;      Locals:         0       0       0       0       0
  1964 ;;      Temps:          0       4       0       0       0
  1965 ;;      Totals:         0       8       0       0       0
  1966 ;;Total ram usage:        8 bytes
  1967 ;; Hardware stack levels used:    1
  1968 ;; Hardware stack levels required when called:    3
  1969 ;; This function calls:
  1970 ;;		___lldiv
  1971 ;; This function is called by:
  1972 ;;		_setup
  1973 ;; This function uses a non-reentrant model
  1974 ;;
  1975                           
  1976                           
  1977                           ;psect for function _I2C_Master_Init
  1978  0D68                     _I2C_Master_Init:
  1979  0D68                     l1805:	
  1980                           ;incstack = 0
  1981                           ; Regs used in _I2C_Master_Init: [wreg+status,2+status,0+pclath+cstack]
  1982                           
  1983                           
  1984                           ;I2C.c: 16: void I2C_Master_Init(const unsigned long c);I2C.c: 17: {;I2C.c: 18:     SSPC
      +                          ON = 0b00101000;
  1985  0D68  3028               	movlw	40
  1986  0D69  1283               	bcf	3,5	;RP0=0, select bank0
  1987  0D6A  1303               	bcf	3,6	;RP1=0, select bank0
  1988  0D6B  0094               	movwf	20	;volatile
  1989  0D6C                     l1807:
  1990                           
  1991                           ;I2C.c: 19:     SSPCON2 = 0;
  1992  0D6C  1683               	bsf	3,5	;RP0=1, select bank1
  1993  0D6D  1303               	bcf	3,6	;RP1=0, select bank1
  1994  0D6E  0191               	clrf	17	;volatile
  1995  0D6F                     l1809:
  1996                           
  1997                           ;I2C.c: 20:     SSPADD = (8000000/(4*c))-1;
  1998  0D6F  1283               	bcf	3,5	;RP0=0, select bank0
  1999  0D70  1303               	bcf	3,6	;RP1=0, select bank0
  2000  0D71  082E               	movf	I2C_Master_Init@c,w
  2001  0D72  00B2               	movwf	??_I2C_Master_Init
  2002  0D73  082F               	movf	I2C_Master_Init@c+1,w
  2003  0D74  00B3               	movwf	??_I2C_Master_Init+1
  2004  0D75  0830               	movf	I2C_Master_Init@c+2,w
  2005  0D76  00B4               	movwf	??_I2C_Master_Init+2
  2006  0D77  0831               	movf	I2C_Master_Init@c+3,w
  2007  0D78  00B5               	movwf	??_I2C_Master_Init+3
  2008  0D79  3002               	movlw	2
  2009  0D7A                     u1275:
  2010  0D7A  1003               	clrc
  2011  0D7B  0DB2               	rlf	??_I2C_Master_Init,f
  2012  0D7C  0DB3               	rlf	??_I2C_Master_Init+1,f
  2013  0D7D  0DB4               	rlf	??_I2C_Master_Init+2,f
  2014  0D7E  0DB5               	rlf	??_I2C_Master_Init+3,f
  2015  0D7F                     u1270:
  2016  0D7F  3EFF               	addlw	-1
  2017  0D80  1D03               	skipz
  2018  0D81  2D7A               	goto	u1275
  2019  0D82  0835               	movf	??_I2C_Master_Init+3,w
  2020  0D83  00A3               	movwf	___lldiv@divisor+3
  2021  0D84  0834               	movf	??_I2C_Master_Init+2,w
  2022  0D85  00A2               	movwf	___lldiv@divisor+2
  2023  0D86  0833               	movf	??_I2C_Master_Init+1,w
  2024  0D87  00A1               	movwf	___lldiv@divisor+1
  2025  0D88  0832               	movf	??_I2C_Master_Init,w
  2026  0D89  00A0               	movwf	___lldiv@divisor
  2027  0D8A  3000               	movlw	0
  2028  0D8B  00A7               	movwf	___lldiv@dividend+3
  2029  0D8C  307A               	movlw	122
  2030  0D8D  00A6               	movwf	___lldiv@dividend+2
  2031  0D8E  3012               	movlw	18
  2032  0D8F  00A5               	movwf	___lldiv@dividend+1
  2033  0D90  3000               	movlw	0
  2034  0D91  00A4               	movwf	___lldiv@dividend
  2035  0D92  120A  158A  2640  120A  158A  	fcall	___lldiv
  2036  0D97  1283               	bcf	3,5	;RP0=0, select bank0
  2037  0D98  1303               	bcf	3,6	;RP1=0, select bank0
  2038  0D99  0820               	movf	?___lldiv,w
  2039  0D9A  3EFF               	addlw	255
  2040  0D9B  1683               	bsf	3,5	;RP0=1, select bank1
  2041  0D9C  1303               	bcf	3,6	;RP1=0, select bank1
  2042  0D9D  0093               	movwf	19	;volatile
  2043  0D9E                     l1811:
  2044                           
  2045                           ;I2C.c: 21:     SSPSTAT = 0;
  2046  0D9E  0194               	clrf	20	;volatile
  2047  0D9F                     l1813:
  2048                           
  2049                           ;I2C.c: 22:     TRISCbits.TRISC3 = 1;
  2050  0D9F  1587               	bsf	7,3	;volatile
  2051  0DA0                     l1815:
  2052                           
  2053                           ;I2C.c: 23:     TRISCbits.TRISC4 = 1;
  2054  0DA0  1607               	bsf	7,4	;volatile
  2055  0DA1                     l29:
  2056  0DA1  0008               	return
  2057  0DA2                     __end_of_I2C_Master_Init:
  2058                           
  2059                           	psect	text3
  2060  0E40                     __ptext3:	
  2061 ;; *************** function ___lldiv *****************
  2062 ;; Defined at:
  2063 ;;		line 5 in file "C:\Program Files\Microchip\xc8\v2.31\pic\sources\c90\common\__lldiv.c"
  2064 ;; Parameters:    Size  Location     Type
  2065 ;;  divisor         4    0[BANK0 ] unsigned long 
  2066 ;;  dividend        4    4[BANK0 ] unsigned long 
  2067 ;; Auto vars:     Size  Location     Type
  2068 ;;  quotient        4    9[BANK0 ] unsigned long 
  2069 ;;  counter         1   13[BANK0 ] unsigned char 
  2070 ;; Return value:  Size  Location     Type
  2071 ;;                  4    0[BANK0 ] unsigned long 
  2072 ;; Registers used:
  2073 ;;		wreg, status,2, status,0
  2074 ;; Tracked objects:
  2075 ;;		On entry : 0/0
  2076 ;;		On exit  : 0/0
  2077 ;;		Unchanged: 0/0
  2078 ;; Data sizes:     COMMON   BANK0   BANK1   BANK3   BANK2
  2079 ;;      Params:         0       8       0       0       0
  2080 ;;      Locals:         0       5       0       0       0
  2081 ;;      Temps:          0       1       0       0       0
  2082 ;;      Totals:         0      14       0       0       0
  2083 ;;Total ram usage:       14 bytes
  2084 ;; Hardware stack levels used:    1
  2085 ;; Hardware stack levels required when called:    2
  2086 ;; This function calls:
  2087 ;;		Nothing
  2088 ;; This function is called by:
  2089 ;;		_I2C_Master_Init
  2090 ;; This function uses a non-reentrant model
  2091 ;;
  2092                           
  2093                           
  2094                           ;psect for function ___lldiv
  2095  0E40                     ___lldiv:
  2096  0E40                     l1781:	
  2097                           ;incstack = 0
  2098                           ; Regs used in ___lldiv: [wreg+status,2+status,0]
  2099                           
  2100  0E40  3000               	movlw	0
  2101  0E41  1283               	bcf	3,5	;RP0=0, select bank0
  2102  0E42  1303               	bcf	3,6	;RP1=0, select bank0
  2103  0E43  00AC               	movwf	___lldiv@quotient+3
  2104  0E44  3000               	movlw	0
  2105  0E45  00AB               	movwf	___lldiv@quotient+2
  2106  0E46  3000               	movlw	0
  2107  0E47  00AA               	movwf	___lldiv@quotient+1
  2108  0E48  3000               	movlw	0
  2109  0E49  00A9               	movwf	___lldiv@quotient
  2110  0E4A  0823               	movf	___lldiv@divisor+3,w
  2111  0E4B  0422               	iorwf	___lldiv@divisor+2,w
  2112  0E4C  0421               	iorwf	___lldiv@divisor+1,w
  2113  0E4D  0420               	iorwf	___lldiv@divisor,w
  2114  0E4E  1903               	skipnz
  2115  0E4F  2E51               	goto	u1201
  2116  0E50  2E52               	goto	u1200
  2117  0E51                     u1201:
  2118  0E51  2E9F               	goto	l1801
  2119  0E52                     u1200:
  2120  0E52                     l1783:
  2121  0E52  01AD               	clrf	___lldiv@counter
  2122  0E53  0AAD               	incf	___lldiv@counter,f
  2123  0E54  2E62               	goto	l1787
  2124  0E55                     l1785:
  2125  0E55  3001               	movlw	1
  2126  0E56  00A8               	movwf	??___lldiv
  2127  0E57                     u1215:
  2128  0E57  1003               	clrc
  2129  0E58  0DA0               	rlf	___lldiv@divisor,f
  2130  0E59  0DA1               	rlf	___lldiv@divisor+1,f
  2131  0E5A  0DA2               	rlf	___lldiv@divisor+2,f
  2132  0E5B  0DA3               	rlf	___lldiv@divisor+3,f
  2133  0E5C  0BA8               	decfsz	??___lldiv,f
  2134  0E5D  2E57               	goto	u1215
  2135  0E5E  3001               	movlw	1
  2136  0E5F  00A8               	movwf	??___lldiv
  2137  0E60  0828               	movf	??___lldiv,w
  2138  0E61  07AD               	addwf	___lldiv@counter,f
  2139  0E62                     l1787:
  2140  0E62  1FA3               	btfss	___lldiv@divisor+3,7
  2141  0E63  2E65               	goto	u1221
  2142  0E64  2E66               	goto	u1220
  2143  0E65                     u1221:
  2144  0E65  2E55               	goto	l1785
  2145  0E66                     u1220:
  2146  0E66                     l1789:
  2147  0E66  3001               	movlw	1
  2148  0E67  00A8               	movwf	??___lldiv
  2149  0E68                     u1235:
  2150  0E68  1003               	clrc
  2151  0E69  0DA9               	rlf	___lldiv@quotient,f
  2152  0E6A  0DAA               	rlf	___lldiv@quotient+1,f
  2153  0E6B  0DAB               	rlf	___lldiv@quotient+2,f
  2154  0E6C  0DAC               	rlf	___lldiv@quotient+3,f
  2155  0E6D  0BA8               	decfsz	??___lldiv,f
  2156  0E6E  2E68               	goto	u1235
  2157  0E6F                     l1791:
  2158  0E6F  0823               	movf	___lldiv@divisor+3,w
  2159  0E70  0227               	subwf	___lldiv@dividend+3,w
  2160  0E71  1D03               	skipz
  2161  0E72  2E7D               	goto	u1245
  2162  0E73  0822               	movf	___lldiv@divisor+2,w
  2163  0E74  0226               	subwf	___lldiv@dividend+2,w
  2164  0E75  1D03               	skipz
  2165  0E76  2E7D               	goto	u1245
  2166  0E77  0821               	movf	___lldiv@divisor+1,w
  2167  0E78  0225               	subwf	___lldiv@dividend+1,w
  2168  0E79  1D03               	skipz
  2169  0E7A  2E7D               	goto	u1245
  2170  0E7B  0820               	movf	___lldiv@divisor,w
  2171  0E7C  0224               	subwf	___lldiv@dividend,w
  2172  0E7D                     u1245:
  2173  0E7D  1C03               	skipc
  2174  0E7E  2E80               	goto	u1241
  2175  0E7F  2E81               	goto	u1240
  2176  0E80                     u1241:
  2177  0E80  2E90               	goto	l1797
  2178  0E81                     u1240:
  2179  0E81                     l1793:
  2180  0E81  0820               	movf	___lldiv@divisor,w
  2181  0E82  02A4               	subwf	___lldiv@dividend,f
  2182  0E83  0821               	movf	___lldiv@divisor+1,w
  2183  0E84  1C03               	skipc
  2184  0E85  0F21               	incfsz	___lldiv@divisor+1,w
  2185  0E86  02A5               	subwf	___lldiv@dividend+1,f
  2186  0E87  0822               	movf	___lldiv@divisor+2,w
  2187  0E88  1C03               	skipc
  2188  0E89  0F22               	incfsz	___lldiv@divisor+2,w
  2189  0E8A  02A6               	subwf	___lldiv@dividend+2,f
  2190  0E8B  0823               	movf	___lldiv@divisor+3,w
  2191  0E8C  1C03               	skipc
  2192  0E8D  0F23               	incfsz	___lldiv@divisor+3,w
  2193  0E8E  02A7               	subwf	___lldiv@dividend+3,f
  2194  0E8F                     l1795:
  2195  0E8F  1429               	bsf	___lldiv@quotient,0
  2196  0E90                     l1797:
  2197  0E90  3001               	movlw	1
  2198  0E91                     u1255:
  2199  0E91  1003               	clrc
  2200  0E92  0CA3               	rrf	___lldiv@divisor+3,f
  2201  0E93  0CA2               	rrf	___lldiv@divisor+2,f
  2202  0E94  0CA1               	rrf	___lldiv@divisor+1,f
  2203  0E95  0CA0               	rrf	___lldiv@divisor,f
  2204  0E96  3EFF               	addlw	-1
  2205  0E97  1D03               	skipz
  2206  0E98  2E91               	goto	u1255
  2207  0E99                     l1799:
  2208  0E99  3001               	movlw	1
  2209  0E9A  02AD               	subwf	___lldiv@counter,f
  2210  0E9B  1D03               	btfss	3,2
  2211  0E9C  2E9E               	goto	u1261
  2212  0E9D  2E9F               	goto	u1260
  2213  0E9E                     u1261:
  2214  0E9E  2E66               	goto	l1789
  2215  0E9F                     u1260:
  2216  0E9F                     l1801:
  2217  0E9F  082C               	movf	___lldiv@quotient+3,w
  2218  0EA0  00A3               	movwf	?___lldiv+3
  2219  0EA1  082B               	movf	___lldiv@quotient+2,w
  2220  0EA2  00A2               	movwf	?___lldiv+2
  2221  0EA3  082A               	movf	___lldiv@quotient+1,w
  2222  0EA4  00A1               	movwf	?___lldiv+1
  2223  0EA5  0829               	movf	___lldiv@quotient,w
  2224  0EA6  00A0               	movwf	?___lldiv
  2225  0EA7                     l477:
  2226  0EA7  0008               	return
  2227  0EA8                     __end_of___lldiv:
  2228                           
  2229                           	psect	text4
  2230  0C38                     __ptext4:	
  2231 ;; *************** function _moverVentilador *****************
  2232 ;; Defined at:
  2233 ;;		line 410 in file "master_main.c"
  2234 ;; Parameters:    Size  Location     Type
  2235 ;;		None
  2236 ;; Auto vars:     Size  Location     Type
  2237 ;;		None
  2238 ;; Return value:  Size  Location     Type
  2239 ;;                  1    wreg      void 
  2240 ;; Registers used:
  2241 ;;		wreg
  2242 ;; Tracked objects:
  2243 ;;		On entry : 0/0
  2244 ;;		On exit  : 0/0
  2245 ;;		Unchanged: 0/0
  2246 ;; Data sizes:     COMMON   BANK0   BANK1   BANK3   BANK2
  2247 ;;      Params:         0       0       0       0       0
  2248 ;;      Locals:         0       0       0       0       0
  2249 ;;      Temps:          0       0       0       0       0
  2250 ;;      Totals:         0       0       0       0       0
  2251 ;;Total ram usage:        0 bytes
  2252 ;; Hardware stack levels used:    1
  2253 ;; Hardware stack levels required when called:    2
  2254 ;; This function calls:
  2255 ;;		Nothing
  2256 ;; This function is called by:
  2257 ;;		_main
  2258 ;; This function uses a non-reentrant model
  2259 ;;
  2260                           
  2261                           
  2262                           ;psect for function _moverVentilador
  2263  0C38                     _moverVentilador:
  2264  0C38                     l2029:	
  2265                           ;incstack = 0
  2266                           ; Regs used in _moverVentilador: [wreg]
  2267                           
  2268  0C38  3000               	movlw	0
  2269  0C39  1683               	bsf	3,5	;RP0=1, select bank1
  2270  0C3A  1303               	bcf	3,6	;RP1=0, select bank1
  2271  0C3B  0221               	subwf	(_T_byte1+1)^(0+128),w
  2272  0C3C  301A               	movlw	26
  2273  0C3D  1903               	skipnz
  2274  0C3E  0220               	subwf	_T_byte1^(0+128),w
  2275  0C3F  1C03               	skipc
  2276  0C40  2C42               	goto	u1511
  2277  0C41  2C43               	goto	u1510
  2278  0C42                     u1511:
  2279  0C42  2C47               	goto	l333
  2280  0C43                     u1510:
  2281  0C43                     l2031:
  2282  0C43  1283               	bcf	3,5	;RP0=0, select bank0
  2283  0C44  1303               	bcf	3,6	;RP1=0, select bank0
  2284  0C45  1405               	bsf	5,0	;volatile
  2285  0C46  2C4A               	goto	l335
  2286  0C47                     l333:
  2287  0C47  1283               	bcf	3,5	;RP0=0, select bank0
  2288  0C48  1303               	bcf	3,6	;RP1=0, select bank0
  2289  0C49  1005               	bcf	5,0	;volatile
  2290  0C4A                     l335:
  2291  0C4A  0008               	return
  2292  0C4B                     __end_of_moverVentilador:
  2293                           
  2294                           	psect	text5
  2295  0C9C                     __ptext5:	
  2296 ;; *************** function _alarmaBuzzer *****************
  2297 ;; Defined at:
  2298 ;;		line 418 in file "master_main.c"
  2299 ;; Parameters:    Size  Location     Type
  2300 ;;		None
  2301 ;; Auto vars:     Size  Location     Type
  2302 ;;		None
  2303 ;; Return value:  Size  Location     Type
  2304 ;;                  1    wreg      void 
  2305 ;; Registers used:
  2306 ;;		wreg
  2307 ;; Tracked objects:
  2308 ;;		On entry : 0/0
  2309 ;;		On exit  : 0/0
  2310 ;;		Unchanged: 0/0
  2311 ;; Data sizes:     COMMON   BANK0   BANK1   BANK3   BANK2
  2312 ;;      Params:         0       0       0       0       0
  2313 ;;      Locals:         0       0       0       0       0
  2314 ;;      Temps:          0       3       0       0       0
  2315 ;;      Totals:         0       3       0       0       0
  2316 ;;Total ram usage:        3 bytes
  2317 ;; Hardware stack levels used:    1
  2318 ;; Hardware stack levels required when called:    2
  2319 ;; This function calls:
  2320 ;;		Nothing
  2321 ;; This function is called by:
  2322 ;;		_main
  2323 ;; This function uses a non-reentrant model
  2324 ;;
  2325                           
  2326                           
  2327                           ;psect for function _alarmaBuzzer
  2328  0C9C                     _alarmaBuzzer:
  2329  0C9C                     l2033:	
  2330                           ;incstack = 0
  2331                           ; Regs used in _alarmaBuzzer: [wreg]
  2332                           
  2333  0C9C  1283               	bcf	3,5	;RP0=0, select bank0
  2334  0C9D  1303               	bcf	3,6	;RP1=0, select bank0
  2335  0C9E  1485               	bsf	5,1	;volatile
  2336  0C9F                     l2035:
  2337  0C9F  3006               	movlw	6
  2338  0CA0  1283               	bcf	3,5	;RP0=0, select bank0
  2339  0CA1  1303               	bcf	3,6	;RP1=0, select bank0
  2340  0CA2  00A2               	movwf	??_alarmaBuzzer+2
  2341  0CA3  3013               	movlw	19
  2342  0CA4  00A1               	movwf	??_alarmaBuzzer+1
  2343  0CA5  30AD               	movlw	173
  2344  0CA6  00A0               	movwf	??_alarmaBuzzer
  2345  0CA7                     u2427:
  2346  0CA7  0BA0               	decfsz	??_alarmaBuzzer,f
  2347  0CA8  2CA7               	goto	u2427
  2348  0CA9  0BA1               	decfsz	??_alarmaBuzzer+1,f
  2349  0CAA  2CA7               	goto	u2427
  2350  0CAB  0BA2               	decfsz	??_alarmaBuzzer+2,f
  2351  0CAC  2CA7               	goto	u2427
  2352  0CAD                     l2037:
  2353  0CAD  1283               	bcf	3,5	;RP0=0, select bank0
  2354  0CAE  1303               	bcf	3,6	;RP1=0, select bank0
  2355  0CAF  1085               	bcf	5,1	;volatile
  2356  0CB0  3053               	movlw	83
  2357  0CB1  00A0               	movwf	??_alarmaBuzzer
  2358  0CB2  0820               	movf	??_alarmaBuzzer,w
  2359  0CB3  00E6               	movwf	_POS1_BZ
  2360  0CB4  304F               	movlw	79
  2361  0CB5  00A0               	movwf	??_alarmaBuzzer
  2362  0CB6  0820               	movf	??_alarmaBuzzer,w
  2363  0CB7  00E5               	movwf	_POS2_BZ
  2364  0CB8  3053               	movlw	83
  2365  0CB9  00A0               	movwf	??_alarmaBuzzer
  2366  0CBA  0820               	movf	??_alarmaBuzzer,w
  2367  0CBB  00E4               	movwf	_POS3_BZ
  2368  0CBC                     l338:
  2369  0CBC  0008               	return
  2370  0CBD                     __end_of_alarmaBuzzer:
  2371                           
  2372                           	psect	text6
  2373  06ED                     __ptext6:	
  2374 ;; *************** function ___xxtofl *****************
  2375 ;; Defined at:
  2376 ;;		line 10 in file "C:\Program Files\Microchip\xc8\v2.31\pic\sources\c90\common\xxtofl.c"
  2377 ;; Parameters:    Size  Location     Type
  2378 ;;  sign            1    wreg     unsigned char 
  2379 ;;  val             4    0[BANK0 ] long 
  2380 ;; Auto vars:     Size  Location     Type
  2381 ;;  sign            1    8[BANK0 ] unsigned char 
  2382 ;;  arg             4   10[BANK0 ] unsigned long 
  2383 ;;  exp             1    9[BANK0 ] unsigned char 
  2384 ;; Return value:  Size  Location     Type
  2385 ;;                  4    0[BANK0 ] unsigned char 
  2386 ;; Registers used:
  2387 ;;		wreg, status,2, status,0
  2388 ;; Tracked objects:
  2389 ;;		On entry : 0/0
  2390 ;;		On exit  : 0/0
  2391 ;;		Unchanged: 0/0
  2392 ;; Data sizes:     COMMON   BANK0   BANK1   BANK3   BANK2
  2393 ;;      Params:         0       4       0       0       0
  2394 ;;      Locals:         0       6       0       0       0
  2395 ;;      Temps:          0       4       0       0       0
  2396 ;;      Totals:         0      14       0       0       0
  2397 ;;Total ram usage:       14 bytes
  2398 ;; Hardware stack levels used:    1
  2399 ;; Hardware stack levels required when called:    2
  2400 ;; This function calls:
  2401 ;;		Nothing
  2402 ;; This function is called by:
  2403 ;;		_main
  2404 ;; This function uses a non-reentrant model
  2405 ;;
  2406                           
  2407                           
  2408                           ;psect for function ___xxtofl
  2409  06ED                     ___xxtofl:
  2410                           
  2411                           ;incstack = 0
  2412                           ; Regs used in ___xxtofl: [wreg+status,2+status,0]
  2413                           ;___xxtofl@sign stored from wreg
  2414  06ED  1283               	bcf	3,5	;RP0=0, select bank0
  2415  06EE  1303               	bcf	3,6	;RP1=0, select bank0
  2416  06EF  00A8               	movwf	___xxtofl@sign
  2417  06F0                     l2245:
  2418  06F0  0828               	movf	___xxtofl@sign,w
  2419  06F1  1903               	btfsc	3,2
  2420  06F2  2EF4               	goto	u2011
  2421  06F3  2EF5               	goto	u2010
  2422  06F4                     u2011:
  2423  06F4  2F09               	goto	l2251
  2424  06F5                     u2010:
  2425  06F5                     l2247:
  2426  06F5  1FA3               	btfss	___xxtofl@val+3,7
  2427  06F6  2EF8               	goto	u2021
  2428  06F7  2EF9               	goto	u2020
  2429  06F8                     u2021:
  2430  06F8  2F09               	goto	l2251
  2431  06F9                     u2020:
  2432  06F9                     l2249:
  2433  06F9  0920               	comf	___xxtofl@val,w
  2434  06FA  00AA               	movwf	___xxtofl@arg
  2435  06FB  0921               	comf	___xxtofl@val+1,w
  2436  06FC  00AB               	movwf	___xxtofl@arg+1
  2437  06FD  0922               	comf	___xxtofl@val+2,w
  2438  06FE  00AC               	movwf	___xxtofl@arg+2
  2439  06FF  0923               	comf	___xxtofl@val+3,w
  2440  0700  00AD               	movwf	___xxtofl@arg+3
  2441  0701  0AAA               	incf	___xxtofl@arg,f
  2442  0702  1903               	skipnz
  2443  0703  0AAB               	incf	___xxtofl@arg+1,f
  2444  0704  1903               	skipnz
  2445  0705  0AAC               	incf	___xxtofl@arg+2,f
  2446  0706  1903               	skipnz
  2447  0707  0AAD               	incf	___xxtofl@arg+3,f
  2448  0708  2F11               	goto	l874
  2449  0709                     l2251:
  2450  0709  0823               	movf	___xxtofl@val+3,w
  2451  070A  00AD               	movwf	___xxtofl@arg+3
  2452  070B  0822               	movf	___xxtofl@val+2,w
  2453  070C  00AC               	movwf	___xxtofl@arg+2
  2454  070D  0821               	movf	___xxtofl@val+1,w
  2455  070E  00AB               	movwf	___xxtofl@arg+1
  2456  070F  0820               	movf	___xxtofl@val,w
  2457  0710  00AA               	movwf	___xxtofl@arg
  2458  0711                     l874:
  2459  0711  0823               	movf	___xxtofl@val+3,w
  2460  0712  0422               	iorwf	___xxtofl@val+2,w
  2461  0713  0421               	iorwf	___xxtofl@val+1,w
  2462  0714  0420               	iorwf	___xxtofl@val,w
  2463  0715  1D03               	skipz
  2464  0716  2F18               	goto	u2031
  2465  0717  2F19               	goto	u2030
  2466  0718                     u2031:
  2467  0718  2F22               	goto	l2257
  2468  0719                     u2030:
  2469  0719                     l2253:
  2470  0719  3000               	movlw	0
  2471  071A  00A3               	movwf	?___xxtofl+3
  2472  071B  3000               	movlw	0
  2473  071C  00A2               	movwf	?___xxtofl+2
  2474  071D  3000               	movlw	0
  2475  071E  00A1               	movwf	?___xxtofl+1
  2476  071F  3000               	movlw	0
  2477  0720  00A0               	movwf	?___xxtofl
  2478  0721  2FA8               	goto	l876
  2479  0722                     l2257:
  2480  0722  3096               	movlw	150
  2481  0723  00A4               	movwf	??___xxtofl
  2482  0724  0824               	movf	??___xxtofl,w
  2483  0725  00A9               	movwf	___xxtofl@exp
  2484  0726  2F34               	goto	l2261
  2485  0727                     l2259:
  2486  0727  3001               	movlw	1
  2487  0728  00A4               	movwf	??___xxtofl
  2488  0729  0824               	movf	??___xxtofl,w
  2489  072A  07A9               	addwf	___xxtofl@exp,f
  2490  072B  3001               	movlw	1
  2491  072C                     u2045:
  2492  072C  1003               	clrc
  2493  072D  0CAD               	rrf	___xxtofl@arg+3,f
  2494  072E  0CAC               	rrf	___xxtofl@arg+2,f
  2495  072F  0CAB               	rrf	___xxtofl@arg+1,f
  2496  0730  0CAA               	rrf	___xxtofl@arg,f
  2497  0731  3EFF               	addlw	-1
  2498  0732  1D03               	skipz
  2499  0733  2F2C               	goto	u2045
  2500  0734                     l2261:
  2501  0734  30FE               	movlw	254
  2502  0735  052D               	andwf	___xxtofl@arg+3,w
  2503  0736  1D03               	btfss	3,2
  2504  0737  2F39               	goto	u2051
  2505  0738  2F3A               	goto	u2050
  2506  0739                     u2051:
  2507  0739  2F27               	goto	l2259
  2508  073A                     u2050:
  2509  073A  2F56               	goto	l880
  2510  073B                     l2263:
  2511  073B  3001               	movlw	1
  2512  073C  00A4               	movwf	??___xxtofl
  2513  073D  0824               	movf	??___xxtofl,w
  2514  073E  07A9               	addwf	___xxtofl@exp,f
  2515  073F                     l2265:
  2516  073F  3001               	movlw	1
  2517  0740  07AA               	addwf	___xxtofl@arg,f
  2518  0741  3000               	movlw	0
  2519  0742  1803               	skipnc
  2520  0743  3001               	movlw	1
  2521  0744  07AB               	addwf	___xxtofl@arg+1,f
  2522  0745  3000               	movlw	0
  2523  0746  1803               	skipnc
  2524  0747  3001               	movlw	1
  2525  0748  07AC               	addwf	___xxtofl@arg+2,f
  2526  0749  3000               	movlw	0
  2527  074A  1803               	skipnc
  2528  074B  3001               	movlw	1
  2529  074C  07AD               	addwf	___xxtofl@arg+3,f
  2530  074D                     l2267:
  2531  074D  3001               	movlw	1
  2532  074E                     u2065:
  2533  074E  1003               	clrc
  2534  074F  0CAD               	rrf	___xxtofl@arg+3,f
  2535  0750  0CAC               	rrf	___xxtofl@arg+2,f
  2536  0751  0CAB               	rrf	___xxtofl@arg+1,f
  2537  0752  0CAA               	rrf	___xxtofl@arg,f
  2538  0753  3EFF               	addlw	-1
  2539  0754  1D03               	skipz
  2540  0755  2F4E               	goto	u2065
  2541  0756                     l880:
  2542  0756  30FF               	movlw	255
  2543  0757  052D               	andwf	___xxtofl@arg+3,w
  2544  0758  1D03               	btfss	3,2
  2545  0759  2F5B               	goto	u2071
  2546  075A  2F5C               	goto	u2070
  2547  075B                     u2071:
  2548  075B  2F3B               	goto	l2263
  2549  075C                     u2070:
  2550  075C  2F68               	goto	l2271
  2551  075D                     l2269:
  2552  075D  3001               	movlw	1
  2553  075E  02A9               	subwf	___xxtofl@exp,f
  2554  075F  3001               	movlw	1
  2555  0760  00A4               	movwf	??___xxtofl
  2556  0761                     u2085:
  2557  0761  1003               	clrc
  2558  0762  0DAA               	rlf	___xxtofl@arg,f
  2559  0763  0DAB               	rlf	___xxtofl@arg+1,f
  2560  0764  0DAC               	rlf	___xxtofl@arg+2,f
  2561  0765  0DAD               	rlf	___xxtofl@arg+3,f
  2562  0766  0BA4               	decfsz	??___xxtofl,f
  2563  0767  2F61               	goto	u2085
  2564  0768                     l2271:
  2565  0768  1BAC               	btfsc	___xxtofl@arg+2,7
  2566  0769  2F6B               	goto	u2091
  2567  076A  2F6C               	goto	u2090
  2568  076B                     u2091:
  2569  076B  2F72               	goto	l887
  2570  076C                     u2090:
  2571  076C                     l2273:
  2572  076C  3002               	movlw	2
  2573  076D  0229               	subwf	___xxtofl@exp,w
  2574  076E  1803               	skipnc
  2575  076F  2F71               	goto	u2101
  2576  0770  2F72               	goto	u2100
  2577  0771                     u2101:
  2578  0771  2F5D               	goto	l2269
  2579  0772                     u2100:
  2580  0772                     l887:
  2581  0772  1829               	btfsc	___xxtofl@exp,0
  2582  0773  2F75               	goto	u2111
  2583  0774  2F76               	goto	u2110
  2584  0775                     u2111:
  2585  0775  2F7E               	goto	l888
  2586  0776                     u2110:
  2587  0776                     l2275:
  2588  0776  30FF               	movlw	255
  2589  0777  05AA               	andwf	___xxtofl@arg,f
  2590  0778  30FF               	movlw	255
  2591  0779  05AB               	andwf	___xxtofl@arg+1,f
  2592  077A  307F               	movlw	127
  2593  077B  05AC               	andwf	___xxtofl@arg+2,f
  2594  077C  30FF               	movlw	255
  2595  077D  05AD               	andwf	___xxtofl@arg+3,f
  2596  077E                     l888:
  2597  077E  1003               	clrc
  2598  077F  0CA9               	rrf	___xxtofl@exp,f
  2599  0780                     l2277:
  2600  0780  0829               	movf	___xxtofl@exp,w
  2601  0781  00A4               	movwf	??___xxtofl
  2602  0782  01A5               	clrf	??___xxtofl+1
  2603  0783  01A6               	clrf	??___xxtofl+2
  2604  0784  01A7               	clrf	??___xxtofl+3
  2605  0785  3018               	movlw	24
  2606  0786                     u2125:
  2607  0786  1003               	clrc
  2608  0787  0DA4               	rlf	??___xxtofl,f
  2609  0788  0DA5               	rlf	??___xxtofl+1,f
  2610  0789  0DA6               	rlf	??___xxtofl+2,f
  2611  078A  0DA7               	rlf	??___xxtofl+3,f
  2612  078B                     u2120:
  2613  078B  3EFF               	addlw	-1
  2614  078C  1D03               	skipz
  2615  078D  2F86               	goto	u2125
  2616  078E  0824               	movf	??___xxtofl,w
  2617  078F  04AA               	iorwf	___xxtofl@arg,f
  2618  0790  0825               	movf	??___xxtofl+1,w
  2619  0791  04AB               	iorwf	___xxtofl@arg+1,f
  2620  0792  0826               	movf	??___xxtofl+2,w
  2621  0793  04AC               	iorwf	___xxtofl@arg+2,f
  2622  0794  0827               	movf	??___xxtofl+3,w
  2623  0795  04AD               	iorwf	___xxtofl@arg+3,f
  2624  0796                     l2279:
  2625  0796  0828               	movf	___xxtofl@sign,w
  2626  0797  1903               	btfsc	3,2
  2627  0798  2F9A               	goto	u2131
  2628  0799  2F9B               	goto	u2130
  2629  079A                     u2131:
  2630  079A  2FA0               	goto	l2285
  2631  079B                     u2130:
  2632  079B                     l2281:
  2633  079B  1FA3               	btfss	___xxtofl@val+3,7
  2634  079C  2F9E               	goto	u2141
  2635  079D  2F9F               	goto	u2140
  2636  079E                     u2141:
  2637  079E  2FA0               	goto	l2285
  2638  079F                     u2140:
  2639  079F                     l2283:
  2640  079F  17AD               	bsf	___xxtofl@arg+3,7
  2641  07A0                     l2285:
  2642  07A0  082D               	movf	___xxtofl@arg+3,w
  2643  07A1  00A3               	movwf	?___xxtofl+3
  2644  07A2  082C               	movf	___xxtofl@arg+2,w
  2645  07A3  00A2               	movwf	?___xxtofl+2
  2646  07A4  082B               	movf	___xxtofl@arg+1,w
  2647  07A5  00A1               	movwf	?___xxtofl+1
  2648  07A6  082A               	movf	___xxtofl@arg,w
  2649  07A7  00A0               	movwf	?___xxtofl
  2650  07A8                     l876:
  2651  07A8  0008               	return
  2652  07A9                     __end_of___xxtofl:
  2653                           
  2654                           	psect	text7
  2655  0F84                     __ptext7:	
  2656 ;; *************** function ___fltol *****************
  2657 ;; Defined at:
  2658 ;;		line 43 in file "C:\Program Files\Microchip\xc8\v2.31\pic\sources\c90\common\fltol.c"
  2659 ;; Parameters:    Size  Location     Type
  2660 ;;  f1              4   40[BANK0 ] unsigned char 
  2661 ;; Auto vars:     Size  Location     Type
  2662 ;;  exp1            1   50[BANK0 ] unsigned char 
  2663 ;;  sign1           1   49[BANK0 ] unsigned char 
  2664 ;; Return value:  Size  Location     Type
  2665 ;;                  4   40[BANK0 ] long 
  2666 ;; Registers used:
  2667 ;;		wreg, status,2, status,0
  2668 ;; Tracked objects:
  2669 ;;		On entry : 0/0
  2670 ;;		On exit  : 0/0
  2671 ;;		Unchanged: 0/0
  2672 ;; Data sizes:     COMMON   BANK0   BANK1   BANK3   BANK2
  2673 ;;      Params:         0       4       0       0       0
  2674 ;;      Locals:         0       2       0       0       0
  2675 ;;      Temps:          0       5       0       0       0
  2676 ;;      Totals:         0      11       0       0       0
  2677 ;;Total ram usage:       11 bytes
  2678 ;; Hardware stack levels used:    1
  2679 ;; Hardware stack levels required when called:    2
  2680 ;; This function calls:
  2681 ;;		Nothing
  2682 ;; This function is called by:
  2683 ;;		_main
  2684 ;; This function uses a non-reentrant model
  2685 ;;
  2686                           
  2687                           
  2688                           ;psect for function ___fltol
  2689  0F84                     ___fltol:
  2690  0F84                     l2069:	
  2691                           ;incstack = 0
  2692                           ; Regs used in ___fltol: [wreg+status,2+status,0]
  2693                           
  2694  0F84  1003               	clrc
  2695  0F85  1283               	bcf	3,5	;RP0=0, select bank0
  2696  0F86  1303               	bcf	3,6	;RP1=0, select bank0
  2697  0F87  0D4A               	rlf	___fltol@f1+2,w
  2698  0F88  0D4B               	rlf	___fltol@f1+3,w
  2699  0F89  00CC               	movwf	??___fltol
  2700  0F8A  084C               	movf	??___fltol,w
  2701  0F8B  00D2               	movwf	___fltol@exp1
  2702  0F8C  0852               	movf	___fltol@exp1,w
  2703  0F8D  1D03               	btfss	3,2
  2704  0F8E  2F90               	goto	u1541
  2705  0F8F  2F91               	goto	u1540
  2706  0F90                     u1541:
  2707  0F90  2F9A               	goto	l2075
  2708  0F91                     u1540:
  2709  0F91                     l2071:
  2710  0F91  3000               	movlw	0
  2711  0F92  00CB               	movwf	?___fltol+3
  2712  0F93  3000               	movlw	0
  2713  0F94  00CA               	movwf	?___fltol+2
  2714  0F95  3000               	movlw	0
  2715  0F96  00C9               	movwf	?___fltol+1
  2716  0F97  3000               	movlw	0
  2717  0F98  00C8               	movwf	?___fltol
  2718  0F99  2FFF               	goto	l627
  2719  0F9A                     l2075:
  2720  0F9A  0848               	movf	___fltol@f1,w
  2721  0F9B  00CC               	movwf	??___fltol
  2722  0F9C  0849               	movf	___fltol@f1+1,w
  2723  0F9D  00CD               	movwf	??___fltol+1
  2724  0F9E  084A               	movf	___fltol@f1+2,w
  2725  0F9F  00CE               	movwf	??___fltol+2
  2726  0FA0  084B               	movf	___fltol@f1+3,w
  2727  0FA1  00CF               	movwf	??___fltol+3
  2728  0FA2  301F               	movlw	31
  2729  0FA3                     u1555:
  2730  0FA3  1003               	clrc
  2731  0FA4  0CCF               	rrf	??___fltol+3,f
  2732  0FA5  0CCE               	rrf	??___fltol+2,f
  2733  0FA6  0CCD               	rrf	??___fltol+1,f
  2734  0FA7  0CCC               	rrf	??___fltol,f
  2735  0FA8                     u1550:
  2736  0FA8  3EFF               	addlw	-1
  2737  0FA9  1D03               	skipz
  2738  0FAA  2FA3               	goto	u1555
  2739  0FAB  084C               	movf	??___fltol,w
  2740  0FAC  00D0               	movwf	??___fltol+4
  2741  0FAD  0850               	movf	??___fltol+4,w
  2742  0FAE  00D1               	movwf	___fltol@sign1
  2743  0FAF                     l2077:
  2744  0FAF  17CA               	bsf	___fltol@f1+2,7
  2745  0FB0                     l2079:
  2746  0FB0  30FF               	movlw	255
  2747  0FB1  05C8               	andwf	___fltol@f1,f
  2748  0FB2  30FF               	movlw	255
  2749  0FB3  05C9               	andwf	___fltol@f1+1,f
  2750  0FB4  30FF               	movlw	255
  2751  0FB5  05CA               	andwf	___fltol@f1+2,f
  2752  0FB6  3000               	movlw	0
  2753  0FB7  05CB               	andwf	___fltol@f1+3,f
  2754  0FB8                     l2081:
  2755  0FB8  3096               	movlw	150
  2756  0FB9  02D2               	subwf	___fltol@exp1,f
  2757  0FBA                     l2083:
  2758  0FBA  1FD2               	btfss	___fltol@exp1,7
  2759  0FBB  2FBD               	goto	u1561
  2760  0FBC  2FBE               	goto	u1560
  2761  0FBD                     u1561:
  2762  0FBD  2FD8               	goto	l2093
  2763  0FBE                     u1560:
  2764  0FBE                     l2085:
  2765  0FBE  0852               	movf	___fltol@exp1,w
  2766  0FBF  3A80               	xorlw	128
  2767  0FC0  3E97               	addlw	151
  2768  0FC1  1803               	skipnc
  2769  0FC2  2FC4               	goto	u1571
  2770  0FC3  2FC5               	goto	u1570
  2771  0FC4                     u1571:
  2772  0FC4  2FC6               	goto	l2091
  2773  0FC5                     u1570:
  2774  0FC5  2F91               	goto	l2071
  2775  0FC6                     l2091:
  2776  0FC6  3001               	movlw	1
  2777  0FC7                     u1585:
  2778  0FC7  1003               	clrc
  2779  0FC8  0CCB               	rrf	___fltol@f1+3,f
  2780  0FC9  0CCA               	rrf	___fltol@f1+2,f
  2781  0FCA  0CC9               	rrf	___fltol@f1+1,f
  2782  0FCB  0CC8               	rrf	___fltol@f1,f
  2783  0FCC  3EFF               	addlw	-1
  2784  0FCD  1D03               	skipz
  2785  0FCE  2FC7               	goto	u1585
  2786  0FCF  3001               	movlw	1
  2787  0FD0  00CC               	movwf	??___fltol
  2788  0FD1  084C               	movf	??___fltol,w
  2789  0FD2  07D2               	addwf	___fltol@exp1,f
  2790  0FD3  1D03               	btfss	3,2
  2791  0FD4  2FD6               	goto	u1591
  2792  0FD5  2FD7               	goto	u1590
  2793  0FD6                     u1591:
  2794  0FD6  2FC6               	goto	l2091
  2795  0FD7                     u1590:
  2796  0FD7  2FEF               	goto	l2101
  2797  0FD8                     l2093:
  2798  0FD8  3020               	movlw	32
  2799  0FD9  0252               	subwf	___fltol@exp1,w
  2800  0FDA  1C03               	skipc
  2801  0FDB  2FDD               	goto	u1601
  2802  0FDC  2FDE               	goto	u1600
  2803  0FDD                     u1601:
  2804  0FDD  2FEA               	goto	l634
  2805  0FDE                     u1600:
  2806  0FDE  2F91               	goto	l2071
  2807  0FDF                     l2099:
  2808  0FDF  3001               	movlw	1
  2809  0FE0  00CC               	movwf	??___fltol
  2810  0FE1                     u1615:
  2811  0FE1  1003               	clrc
  2812  0FE2  0DC8               	rlf	___fltol@f1,f
  2813  0FE3  0DC9               	rlf	___fltol@f1+1,f
  2814  0FE4  0DCA               	rlf	___fltol@f1+2,f
  2815  0FE5  0DCB               	rlf	___fltol@f1+3,f
  2816  0FE6  0BCC               	decfsz	??___fltol,f
  2817  0FE7  2FE1               	goto	u1615
  2818  0FE8  3001               	movlw	1
  2819  0FE9  02D2               	subwf	___fltol@exp1,f
  2820  0FEA                     l634:
  2821  0FEA  0852               	movf	___fltol@exp1,w
  2822  0FEB  1D03               	btfss	3,2
  2823  0FEC  2FEE               	goto	u1621
  2824  0FED  2FEF               	goto	u1620
  2825  0FEE                     u1621:
  2826  0FEE  2FDF               	goto	l2099
  2827  0FEF                     u1620:
  2828  0FEF                     l2101:
  2829  0FEF  0851               	movf	___fltol@sign1,w
  2830  0FF0  1903               	btfsc	3,2
  2831  0FF1  2FF3               	goto	u1631
  2832  0FF2  2FF4               	goto	u1630
  2833  0FF3                     u1631:
  2834  0FF3  2FFF               	goto	l637
  2835  0FF4                     u1630:
  2836  0FF4                     l2103:
  2837  0FF4  09C8               	comf	___fltol@f1,f
  2838  0FF5  09C9               	comf	___fltol@f1+1,f
  2839  0FF6  09CA               	comf	___fltol@f1+2,f
  2840  0FF7  09CB               	comf	___fltol@f1+3,f
  2841  0FF8  0AC8               	incf	___fltol@f1,f
  2842  0FF9  1903               	skipnz
  2843  0FFA  0AC9               	incf	___fltol@f1+1,f
  2844  0FFB  1903               	skipnz
  2845  0FFC  0ACA               	incf	___fltol@f1+2,f
  2846  0FFD  1903               	skipnz
  2847  0FFE  0ACB               	incf	___fltol@f1+3,f
  2848  0FFF                     l637:
  2849  0FFF                     l627:
  2850  0FFF  0008               	return
  2851  1000                     __end_of___fltol:
  2852                           
  2853                           	psect	text8
  2854  002E                     __ptext8:	
  2855 ;; *************** function ___flmul *****************
  2856 ;; Defined at:
  2857 ;;		line 8 in file "C:\Program Files\Microchip\xc8\v2.31\pic\sources\c90\common\sprcmul.c"
  2858 ;; Parameters:    Size  Location     Type
  2859 ;;  b               4   14[BANK0 ] long 
  2860 ;;  a               4   18[BANK0 ] long 
  2861 ;; Auto vars:     Size  Location     Type
  2862 ;;  prod            4   34[BANK0 ] struct .
  2863 ;;  grs             4   28[BANK0 ] unsigned long 
  2864 ;;  temp            2   38[BANK0 ] struct .
  2865 ;;  bexp            1   33[BANK0 ] unsigned char 
  2866 ;;  aexp            1   32[BANK0 ] unsigned char 
  2867 ;;  sign            1   27[BANK0 ] unsigned char 
  2868 ;; Return value:  Size  Location     Type
  2869 ;;                  4   14[BANK0 ] unsigned char 
  2870 ;; Registers used:
  2871 ;;		wreg, status,2, status,0, btemp+1, pclath, cstack
  2872 ;; Tracked objects:
  2873 ;;		On entry : 0/0
  2874 ;;		On exit  : 0/0
  2875 ;;		Unchanged: 0/0
  2876 ;; Data sizes:     COMMON   BANK0   BANK1   BANK3   BANK2
  2877 ;;      Params:         0       8       0       0       0
  2878 ;;      Locals:         0      13       0       0       0
  2879 ;;      Temps:          0       5       0       0       0
  2880 ;;      Totals:         0      26       0       0       0
  2881 ;;Total ram usage:       26 bytes
  2882 ;; Hardware stack levels used:    1
  2883 ;; Hardware stack levels required when called:    3
  2884 ;; This function calls:
  2885 ;;		__Umul8_16
  2886 ;; This function is called by:
  2887 ;;		_main
  2888 ;; This function uses a non-reentrant model
  2889 ;;
  2890                           
  2891                           
  2892                           ;psect for function ___flmul
  2893  002E                     ___flmul:
  2894  002E                     l2105:	
  2895                           ;incstack = 0
  2896                           ; Regs used in ___flmul: [wreg+status,2+status,0+btemp+1+pclath+cstack]
  2897                           
  2898  002E  1283               	bcf	3,5	;RP0=0, select bank0
  2899  002F  1303               	bcf	3,6	;RP1=0, select bank0
  2900  0030  0831               	movf	___flmul@b+3,w
  2901  0031  3980               	andlw	128
  2902  0032  00B6               	movwf	??___flmul
  2903  0033  0836               	movf	??___flmul,w
  2904  0034  00BB               	movwf	___flmul@sign
  2905  0035                     l2107:
  2906  0035  0831               	movf	___flmul@b+3,w
  2907  0036  00B6               	movwf	??___flmul
  2908  0037  0736               	addwf	??___flmul,w
  2909  0038  00B7               	movwf	??___flmul+1
  2910  0039  0837               	movf	??___flmul+1,w
  2911  003A  00C1               	movwf	___flmul@bexp
  2912  003B                     l2109:
  2913  003B  1FB0               	btfss	___flmul@b+2,7
  2914  003C  283E               	goto	u1641
  2915  003D  283F               	goto	u1640
  2916  003E                     u1641:
  2917  003E  2840               	goto	l2113
  2918  003F                     u1640:
  2919  003F                     l2111:
  2920  003F  1441               	bsf	___flmul@bexp,0
  2921  0040                     l2113:
  2922  0040  0841               	movf	___flmul@bexp,w
  2923  0041  1903               	btfsc	3,2
  2924  0042  2844               	goto	u1651
  2925  0043  2845               	goto	u1650
  2926  0044                     u1651:
  2927  0044  2854               	goto	l2121
  2928  0045                     u1650:
  2929  0045                     l2115:
  2930  0045  0A41               	incf	___flmul@bexp,w
  2931  0046  1D03               	btfss	3,2
  2932  0047  2849               	goto	u1661
  2933  0048  284A               	goto	u1660
  2934  0049                     u1661:
  2935  0049  2852               	goto	l2119
  2936  004A                     u1660:
  2937  004A                     l2117:
  2938  004A  3000               	movlw	0
  2939  004B  00B1               	movwf	___flmul@b+3
  2940  004C  3000               	movlw	0
  2941  004D  00B0               	movwf	___flmul@b+2
  2942  004E  3000               	movlw	0
  2943  004F  00AF               	movwf	___flmul@b+1
  2944  0050  3000               	movlw	0
  2945  0051  00AE               	movwf	___flmul@b
  2946  0052                     l2119:
  2947  0052  17B0               	bsf	___flmul@b+2,7
  2948  0053  285C               	goto	l2123
  2949  0054                     l2121:
  2950  0054  3000               	movlw	0
  2951  0055  00B1               	movwf	___flmul@b+3
  2952  0056  3000               	movlw	0
  2953  0057  00B0               	movwf	___flmul@b+2
  2954  0058  3000               	movlw	0
  2955  0059  00AF               	movwf	___flmul@b+1
  2956  005A  3000               	movlw	0
  2957  005B  00AE               	movwf	___flmul@b
  2958  005C                     l2123:
  2959  005C  0835               	movf	___flmul@a+3,w
  2960  005D  3980               	andlw	128
  2961  005E  00B6               	movwf	??___flmul
  2962  005F  0836               	movf	??___flmul,w
  2963  0060  06BB               	xorwf	___flmul@sign,f
  2964  0061                     l2125:
  2965  0061  0835               	movf	___flmul@a+3,w
  2966  0062  00B6               	movwf	??___flmul
  2967  0063  0736               	addwf	??___flmul,w
  2968  0064  00B7               	movwf	??___flmul+1
  2969  0065  0837               	movf	??___flmul+1,w
  2970  0066  00C0               	movwf	___flmul@aexp
  2971  0067                     l2127:
  2972  0067  1FB4               	btfss	___flmul@a+2,7
  2973  0068  286A               	goto	u1671
  2974  0069  286B               	goto	u1670
  2975  006A                     u1671:
  2976  006A  286C               	goto	l2131
  2977  006B                     u1670:
  2978  006B                     l2129:
  2979  006B  1440               	bsf	___flmul@aexp,0
  2980  006C                     l2131:
  2981  006C  0840               	movf	___flmul@aexp,w
  2982  006D  1903               	btfsc	3,2
  2983  006E  2870               	goto	u1681
  2984  006F  2871               	goto	u1680
  2985  0070                     u1681:
  2986  0070  2880               	goto	l2139
  2987  0071                     u1680:
  2988  0071                     l2133:
  2989  0071  0A40               	incf	___flmul@aexp,w
  2990  0072  1D03               	btfss	3,2
  2991  0073  2875               	goto	u1691
  2992  0074  2876               	goto	u1690
  2993  0075                     u1691:
  2994  0075  287E               	goto	l2137
  2995  0076                     u1690:
  2996  0076                     l2135:
  2997  0076  3000               	movlw	0
  2998  0077  00B5               	movwf	___flmul@a+3
  2999  0078  3000               	movlw	0
  3000  0079  00B4               	movwf	___flmul@a+2
  3001  007A  3000               	movlw	0
  3002  007B  00B3               	movwf	___flmul@a+1
  3003  007C  3000               	movlw	0
  3004  007D  00B2               	movwf	___flmul@a
  3005  007E                     l2137:
  3006  007E  17B4               	bsf	___flmul@a+2,7
  3007  007F  2888               	goto	l2141
  3008  0080                     l2139:
  3009  0080  3000               	movlw	0
  3010  0081  00B5               	movwf	___flmul@a+3
  3011  0082  3000               	movlw	0
  3012  0083  00B4               	movwf	___flmul@a+2
  3013  0084  3000               	movlw	0
  3014  0085  00B3               	movwf	___flmul@a+1
  3015  0086  3000               	movlw	0
  3016  0087  00B2               	movwf	___flmul@a
  3017  0088                     l2141:
  3018  0088  0840               	movf	___flmul@aexp,w
  3019  0089  1903               	btfsc	3,2
  3020  008A  288C               	goto	u1701
  3021  008B  288D               	goto	u1700
  3022  008C                     u1701:
  3023  008C  2892               	goto	l2145
  3024  008D                     u1700:
  3025  008D                     l2143:
  3026  008D  0841               	movf	___flmul@bexp,w
  3027  008E  1D03               	btfss	3,2
  3028  008F  2891               	goto	u1711
  3029  0090  2892               	goto	u1710
  3030  0091                     u1711:
  3031  0091  289B               	goto	l2149
  3032  0092                     u1710:
  3033  0092                     l2145:
  3034  0092  3000               	movlw	0
  3035  0093  00B1               	movwf	?___flmul+3
  3036  0094  3000               	movlw	0
  3037  0095  00B0               	movwf	?___flmul+2
  3038  0096  3000               	movlw	0
  3039  0097  00AF               	movwf	?___flmul+1
  3040  0098  3000               	movlw	0
  3041  0099  00AE               	movwf	?___flmul
  3042  009A  2B8E               	goto	l830
  3043  009B                     l2149:
  3044  009B  082E               	movf	___flmul@b,w
  3045  009C  00B6               	movwf	??___flmul
  3046  009D  0836               	movf	??___flmul,w
  3047  009E  00A0               	movwf	__Umul8_16@multiplicand
  3048  009F  0834               	movf	___flmul@a+2,w
  3049  00A0  120A  158A  250D  120A  118A  	fcall	__Umul8_16
  3050  00A5  1283               	bcf	3,5	;RP0=0, select bank0
  3051  00A6  1303               	bcf	3,6	;RP1=0, select bank0
  3052  00A7  0821               	movf	?__Umul8_16+1,w
  3053  00A8  00C7               	movwf	___flmul@temp+1
  3054  00A9  0820               	movf	?__Umul8_16,w
  3055  00AA  00C6               	movwf	___flmul@temp
  3056  00AB                     l2151:
  3057  00AB  0846               	movf	___flmul@temp,w
  3058  00AC  00B6               	movwf	??___flmul
  3059  00AD  01B7               	clrf	??___flmul+1
  3060  00AE  01B8               	clrf	??___flmul+2
  3061  00AF  01B9               	clrf	??___flmul+3
  3062  00B0  0839               	movf	??___flmul+3,w
  3063  00B1  00BF               	movwf	___flmul@grs+3
  3064  00B2  0838               	movf	??___flmul+2,w
  3065  00B3  00BE               	movwf	___flmul@grs+2
  3066  00B4  0837               	movf	??___flmul+1,w
  3067  00B5  00BD               	movwf	___flmul@grs+1
  3068  00B6  0836               	movf	??___flmul,w
  3069  00B7  00BC               	movwf	___flmul@grs
  3070  00B8                     l2153:
  3071  00B8  0847               	movf	___flmul@temp+1,w
  3072  00B9  00B6               	movwf	??___flmul
  3073  00BA  01B7               	clrf	??___flmul+1
  3074  00BB  01B8               	clrf	??___flmul+2
  3075  00BC  01B9               	clrf	??___flmul+3
  3076  00BD  0839               	movf	??___flmul+3,w
  3077  00BE  00C5               	movwf	___flmul@prod+3
  3078  00BF  0838               	movf	??___flmul+2,w
  3079  00C0  00C4               	movwf	___flmul@prod+2
  3080  00C1  0837               	movf	??___flmul+1,w
  3081  00C2  00C3               	movwf	___flmul@prod+1
  3082  00C3  0836               	movf	??___flmul,w
  3083  00C4  00C2               	movwf	___flmul@prod
  3084  00C5  082F               	movf	___flmul@b+1,w
  3085  00C6  00B6               	movwf	??___flmul
  3086  00C7  0836               	movf	??___flmul,w
  3087  00C8  00A0               	movwf	__Umul8_16@multiplicand
  3088  00C9  0833               	movf	___flmul@a+1,w
  3089  00CA  120A  158A  250D  120A  118A  	fcall	__Umul8_16
  3090  00CF  1283               	bcf	3,5	;RP0=0, select bank0
  3091  00D0  1303               	bcf	3,6	;RP1=0, select bank0
  3092  00D1  0821               	movf	?__Umul8_16+1,w
  3093  00D2  00C7               	movwf	___flmul@temp+1
  3094  00D3  0820               	movf	?__Umul8_16,w
  3095  00D4  00C6               	movwf	___flmul@temp
  3096  00D5                     l2155:
  3097  00D5  0846               	movf	___flmul@temp,w
  3098  00D6  00B6               	movwf	??___flmul
  3099  00D7  01B7               	clrf	??___flmul+1
  3100  00D8  01B8               	clrf	??___flmul+2
  3101  00D9  01B9               	clrf	??___flmul+3
  3102  00DA  0836               	movf	??___flmul,w
  3103  00DB  07BC               	addwf	___flmul@grs,f
  3104  00DC  0837               	movf	??___flmul+1,w
  3105  00DD  1103               	clrz
  3106  00DE  1803               	skipnc
  3107  00DF  3E01               	addlw	1
  3108  00E0  1903               	skipnz
  3109  00E1  28E3               	goto	u1721
  3110  00E2  07BD               	addwf	___flmul@grs+1,f
  3111  00E3                     u1721:
  3112  00E3  0838               	movf	??___flmul+2,w
  3113  00E4  1103               	clrz
  3114  00E5  1803               	skipnc
  3115  00E6  3E01               	addlw	1
  3116  00E7  1903               	skipnz
  3117  00E8  28EA               	goto	u1722
  3118  00E9  07BE               	addwf	___flmul@grs+2,f
  3119  00EA                     u1722:
  3120  00EA  0839               	movf	??___flmul+3,w
  3121  00EB  1103               	clrz
  3122  00EC  1803               	skipnc
  3123  00ED  3E01               	addlw	1
  3124  00EE  1903               	skipnz
  3125  00EF  28F1               	goto	u1723
  3126  00F0  07BF               	addwf	___flmul@grs+3,f
  3127  00F1                     u1723:
  3128  00F1                     l2157:
  3129  00F1  0847               	movf	___flmul@temp+1,w
  3130  00F2  00B6               	movwf	??___flmul
  3131  00F3  01B7               	clrf	??___flmul+1
  3132  00F4  01B8               	clrf	??___flmul+2
  3133  00F5  01B9               	clrf	??___flmul+3
  3134  00F6  0836               	movf	??___flmul,w
  3135  00F7  07C2               	addwf	___flmul@prod,f
  3136  00F8  0837               	movf	??___flmul+1,w
  3137  00F9  1103               	clrz
  3138  00FA  1803               	skipnc
  3139  00FB  3E01               	addlw	1
  3140  00FC  1903               	skipnz
  3141  00FD  28FF               	goto	u1731
  3142  00FE  07C3               	addwf	___flmul@prod+1,f
  3143  00FF                     u1731:
  3144  00FF  0838               	movf	??___flmul+2,w
  3145  0100  1103               	clrz
  3146  0101  1803               	skipnc
  3147  0102  3E01               	addlw	1
  3148  0103  1903               	skipnz
  3149  0104  2906               	goto	u1732
  3150  0105  07C4               	addwf	___flmul@prod+2,f
  3151  0106                     u1732:
  3152  0106  0839               	movf	??___flmul+3,w
  3153  0107  1103               	clrz
  3154  0108  1803               	skipnc
  3155  0109  3E01               	addlw	1
  3156  010A  1903               	skipnz
  3157  010B  290D               	goto	u1733
  3158  010C  07C5               	addwf	___flmul@prod+3,f
  3159  010D                     u1733:
  3160  010D  0830               	movf	___flmul@b+2,w
  3161  010E  00B6               	movwf	??___flmul
  3162  010F  0836               	movf	??___flmul,w
  3163  0110  00A0               	movwf	__Umul8_16@multiplicand
  3164  0111  0832               	movf	___flmul@a,w
  3165  0112  120A  158A  250D  120A  118A  	fcall	__Umul8_16
  3166  0117  1283               	bcf	3,5	;RP0=0, select bank0
  3167  0118  1303               	bcf	3,6	;RP1=0, select bank0
  3168  0119  0821               	movf	?__Umul8_16+1,w
  3169  011A  00C7               	movwf	___flmul@temp+1
  3170  011B  0820               	movf	?__Umul8_16,w
  3171  011C  00C6               	movwf	___flmul@temp
  3172  011D                     l2159:
  3173  011D  0846               	movf	___flmul@temp,w
  3174  011E  00B6               	movwf	??___flmul
  3175  011F  01B7               	clrf	??___flmul+1
  3176  0120  01B8               	clrf	??___flmul+2
  3177  0121  01B9               	clrf	??___flmul+3
  3178  0122  0836               	movf	??___flmul,w
  3179  0123  07BC               	addwf	___flmul@grs,f
  3180  0124  0837               	movf	??___flmul+1,w
  3181  0125  1103               	clrz
  3182  0126  1803               	skipnc
  3183  0127  3E01               	addlw	1
  3184  0128  1903               	skipnz
  3185  0129  292B               	goto	u1741
  3186  012A  07BD               	addwf	___flmul@grs+1,f
  3187  012B                     u1741:
  3188  012B  0838               	movf	??___flmul+2,w
  3189  012C  1103               	clrz
  3190  012D  1803               	skipnc
  3191  012E  3E01               	addlw	1
  3192  012F  1903               	skipnz
  3193  0130  2932               	goto	u1742
  3194  0131  07BE               	addwf	___flmul@grs+2,f
  3195  0132                     u1742:
  3196  0132  0839               	movf	??___flmul+3,w
  3197  0133  1103               	clrz
  3198  0134  1803               	skipnc
  3199  0135  3E01               	addlw	1
  3200  0136  1903               	skipnz
  3201  0137  2939               	goto	u1743
  3202  0138  07BF               	addwf	___flmul@grs+3,f
  3203  0139                     u1743:
  3204  0139                     l2161:
  3205  0139  0847               	movf	___flmul@temp+1,w
  3206  013A  00B6               	movwf	??___flmul
  3207  013B  01B7               	clrf	??___flmul+1
  3208  013C  01B8               	clrf	??___flmul+2
  3209  013D  01B9               	clrf	??___flmul+3
  3210  013E  0836               	movf	??___flmul,w
  3211  013F  07C2               	addwf	___flmul@prod,f
  3212  0140  0837               	movf	??___flmul+1,w
  3213  0141  1103               	clrz
  3214  0142  1803               	skipnc
  3215  0143  3E01               	addlw	1
  3216  0144  1903               	skipnz
  3217  0145  2947               	goto	u1751
  3218  0146  07C3               	addwf	___flmul@prod+1,f
  3219  0147                     u1751:
  3220  0147  0838               	movf	??___flmul+2,w
  3221  0148  1103               	clrz
  3222  0149  1803               	skipnc
  3223  014A  3E01               	addlw	1
  3224  014B  1903               	skipnz
  3225  014C  294E               	goto	u1752
  3226  014D  07C4               	addwf	___flmul@prod+2,f
  3227  014E                     u1752:
  3228  014E  0839               	movf	??___flmul+3,w
  3229  014F  1103               	clrz
  3230  0150  1803               	skipnc
  3231  0151  3E01               	addlw	1
  3232  0152  1903               	skipnz
  3233  0153  2955               	goto	u1753
  3234  0154  07C5               	addwf	___flmul@prod+3,f
  3235  0155                     u1753:
  3236  0155                     l2163:
  3237  0155  3008               	movlw	8
  3238  0156  00B6               	movwf	??___flmul
  3239  0157                     u1765:
  3240  0157  1003               	clrc
  3241  0158  0DBC               	rlf	___flmul@grs,f
  3242  0159  0DBD               	rlf	___flmul@grs+1,f
  3243  015A  0DBE               	rlf	___flmul@grs+2,f
  3244  015B  0DBF               	rlf	___flmul@grs+3,f
  3245  015C  0BB6               	decfsz	??___flmul,f
  3246  015D  2957               	goto	u1765
  3247  015E                     l2165:
  3248  015E  082F               	movf	___flmul@b+1,w
  3249  015F  00B6               	movwf	??___flmul
  3250  0160  0836               	movf	??___flmul,w
  3251  0161  00A0               	movwf	__Umul8_16@multiplicand
  3252  0162  0832               	movf	___flmul@a,w
  3253  0163  120A  158A  250D  120A  118A  	fcall	__Umul8_16
  3254  0168  1283               	bcf	3,5	;RP0=0, select bank0
  3255  0169  1303               	bcf	3,6	;RP1=0, select bank0
  3256  016A  0821               	movf	?__Umul8_16+1,w
  3257  016B  00C7               	movwf	___flmul@temp+1
  3258  016C  0820               	movf	?__Umul8_16,w
  3259  016D  00C6               	movwf	___flmul@temp
  3260  016E                     l2167:
  3261  016E  0846               	movf	___flmul@temp,w
  3262  016F  00B6               	movwf	??___flmul
  3263  0170  0847               	movf	___flmul@temp+1,w
  3264  0171  00B7               	movwf	??___flmul+1
  3265  0172  01B8               	clrf	??___flmul+2
  3266  0173  01B9               	clrf	??___flmul+3
  3267  0174  0836               	movf	??___flmul,w
  3268  0175  07BC               	addwf	___flmul@grs,f
  3269  0176  0837               	movf	??___flmul+1,w
  3270  0177  1103               	clrz
  3271  0178  1803               	skipnc
  3272  0179  3E01               	addlw	1
  3273  017A  1903               	skipnz
  3274  017B  297D               	goto	u1771
  3275  017C  07BD               	addwf	___flmul@grs+1,f
  3276  017D                     u1771:
  3277  017D  0838               	movf	??___flmul+2,w
  3278  017E  1103               	clrz
  3279  017F  1803               	skipnc
  3280  0180  3E01               	addlw	1
  3281  0181  1903               	skipnz
  3282  0182  2984               	goto	u1772
  3283  0183  07BE               	addwf	___flmul@grs+2,f
  3284  0184                     u1772:
  3285  0184  0839               	movf	??___flmul+3,w
  3286  0185  1103               	clrz
  3287  0186  1803               	skipnc
  3288  0187  3E01               	addlw	1
  3289  0188  1903               	skipnz
  3290  0189  298B               	goto	u1773
  3291  018A  07BF               	addwf	___flmul@grs+3,f
  3292  018B                     u1773:
  3293  018B                     l2169:
  3294  018B  082E               	movf	___flmul@b,w
  3295  018C  00B6               	movwf	??___flmul
  3296  018D  0836               	movf	??___flmul,w
  3297  018E  00A0               	movwf	__Umul8_16@multiplicand
  3298  018F  0833               	movf	___flmul@a+1,w
  3299  0190  120A  158A  250D  120A  118A  	fcall	__Umul8_16
  3300  0195  1283               	bcf	3,5	;RP0=0, select bank0
  3301  0196  1303               	bcf	3,6	;RP1=0, select bank0
  3302  0197  0821               	movf	?__Umul8_16+1,w
  3303  0198  00C7               	movwf	___flmul@temp+1
  3304  0199  0820               	movf	?__Umul8_16,w
  3305  019A  00C6               	movwf	___flmul@temp
  3306  019B                     l2171:
  3307  019B  0846               	movf	___flmul@temp,w
  3308  019C  00B6               	movwf	??___flmul
  3309  019D  0847               	movf	___flmul@temp+1,w
  3310  019E  00B7               	movwf	??___flmul+1
  3311  019F  01B8               	clrf	??___flmul+2
  3312  01A0  01B9               	clrf	??___flmul+3
  3313  01A1  0836               	movf	??___flmul,w
  3314  01A2  07BC               	addwf	___flmul@grs,f
  3315  01A3  0837               	movf	??___flmul+1,w
  3316  01A4  1103               	clrz
  3317  01A5  1803               	skipnc
  3318  01A6  3E01               	addlw	1
  3319  01A7  1903               	skipnz
  3320  01A8  29AA               	goto	u1781
  3321  01A9  07BD               	addwf	___flmul@grs+1,f
  3322  01AA                     u1781:
  3323  01AA  0838               	movf	??___flmul+2,w
  3324  01AB  1103               	clrz
  3325  01AC  1803               	skipnc
  3326  01AD  3E01               	addlw	1
  3327  01AE  1903               	skipnz
  3328  01AF  29B1               	goto	u1782
  3329  01B0  07BE               	addwf	___flmul@grs+2,f
  3330  01B1                     u1782:
  3331  01B1  0839               	movf	??___flmul+3,w
  3332  01B2  1103               	clrz
  3333  01B3  1803               	skipnc
  3334  01B4  3E01               	addlw	1
  3335  01B5  1903               	skipnz
  3336  01B6  29B8               	goto	u1783
  3337  01B7  07BF               	addwf	___flmul@grs+3,f
  3338  01B8                     u1783:
  3339  01B8                     l2173:
  3340  01B8  3008               	movlw	8
  3341  01B9  00B6               	movwf	??___flmul
  3342  01BA                     u1795:
  3343  01BA  1003               	clrc
  3344  01BB  0DBC               	rlf	___flmul@grs,f
  3345  01BC  0DBD               	rlf	___flmul@grs+1,f
  3346  01BD  0DBE               	rlf	___flmul@grs+2,f
  3347  01BE  0DBF               	rlf	___flmul@grs+3,f
  3348  01BF  0BB6               	decfsz	??___flmul,f
  3349  01C0  29BA               	goto	u1795
  3350  01C1  082E               	movf	___flmul@b,w
  3351  01C2  00B6               	movwf	??___flmul
  3352  01C3  0836               	movf	??___flmul,w
  3353  01C4  00A0               	movwf	__Umul8_16@multiplicand
  3354  01C5  0832               	movf	___flmul@a,w
  3355  01C6  120A  158A  250D  120A  118A  	fcall	__Umul8_16
  3356  01CB  1283               	bcf	3,5	;RP0=0, select bank0
  3357  01CC  1303               	bcf	3,6	;RP1=0, select bank0
  3358  01CD  0821               	movf	?__Umul8_16+1,w
  3359  01CE  00C7               	movwf	___flmul@temp+1
  3360  01CF  0820               	movf	?__Umul8_16,w
  3361  01D0  00C6               	movwf	___flmul@temp
  3362  01D1                     l2175:
  3363  01D1  0846               	movf	___flmul@temp,w
  3364  01D2  00B6               	movwf	??___flmul
  3365  01D3  0847               	movf	___flmul@temp+1,w
  3366  01D4  00B7               	movwf	??___flmul+1
  3367  01D5  01B8               	clrf	??___flmul+2
  3368  01D6  01B9               	clrf	??___flmul+3
  3369  01D7  0836               	movf	??___flmul,w
  3370  01D8  07BC               	addwf	___flmul@grs,f
  3371  01D9  0837               	movf	??___flmul+1,w
  3372  01DA  1103               	clrz
  3373  01DB  1803               	skipnc
  3374  01DC  3E01               	addlw	1
  3375  01DD  1903               	skipnz
  3376  01DE  29E0               	goto	u1801
  3377  01DF  07BD               	addwf	___flmul@grs+1,f
  3378  01E0                     u1801:
  3379  01E0  0838               	movf	??___flmul+2,w
  3380  01E1  1103               	clrz
  3381  01E2  1803               	skipnc
  3382  01E3  3E01               	addlw	1
  3383  01E4  1903               	skipnz
  3384  01E5  29E7               	goto	u1802
  3385  01E6  07BE               	addwf	___flmul@grs+2,f
  3386  01E7                     u1802:
  3387  01E7  0839               	movf	??___flmul+3,w
  3388  01E8  1103               	clrz
  3389  01E9  1803               	skipnc
  3390  01EA  3E01               	addlw	1
  3391  01EB  1903               	skipnz
  3392  01EC  29EE               	goto	u1803
  3393  01ED  07BF               	addwf	___flmul@grs+3,f
  3394  01EE                     u1803:
  3395  01EE                     l2177:
  3396  01EE  082F               	movf	___flmul@b+1,w
  3397  01EF  00B6               	movwf	??___flmul
  3398  01F0  0836               	movf	??___flmul,w
  3399  01F1  00A0               	movwf	__Umul8_16@multiplicand
  3400  01F2  0834               	movf	___flmul@a+2,w
  3401  01F3  120A  158A  250D  120A  118A  	fcall	__Umul8_16
  3402  01F8  1283               	bcf	3,5	;RP0=0, select bank0
  3403  01F9  1303               	bcf	3,6	;RP1=0, select bank0
  3404  01FA  0821               	movf	?__Umul8_16+1,w
  3405  01FB  00C7               	movwf	___flmul@temp+1
  3406  01FC  0820               	movf	?__Umul8_16,w
  3407  01FD  00C6               	movwf	___flmul@temp
  3408  01FE  0846               	movf	___flmul@temp,w
  3409  01FF  00B6               	movwf	??___flmul
  3410  0200  0847               	movf	___flmul@temp+1,w
  3411  0201  00B7               	movwf	??___flmul+1
  3412  0202  01B8               	clrf	??___flmul+2
  3413  0203  01B9               	clrf	??___flmul+3
  3414  0204  0836               	movf	??___flmul,w
  3415  0205  07C2               	addwf	___flmul@prod,f
  3416  0206  0837               	movf	??___flmul+1,w
  3417  0207  1103               	clrz
  3418  0208  1803               	skipnc
  3419  0209  3E01               	addlw	1
  3420  020A  1903               	skipnz
  3421  020B  2A0D               	goto	u1811
  3422  020C  07C3               	addwf	___flmul@prod+1,f
  3423  020D                     u1811:
  3424  020D  0838               	movf	??___flmul+2,w
  3425  020E  1103               	clrz
  3426  020F  1803               	skipnc
  3427  0210  3E01               	addlw	1
  3428  0211  1903               	skipnz
  3429  0212  2A14               	goto	u1812
  3430  0213  07C4               	addwf	___flmul@prod+2,f
  3431  0214                     u1812:
  3432  0214  0839               	movf	??___flmul+3,w
  3433  0215  1103               	clrz
  3434  0216  1803               	skipnc
  3435  0217  3E01               	addlw	1
  3436  0218  1903               	skipnz
  3437  0219  2A1B               	goto	u1813
  3438  021A  07C5               	addwf	___flmul@prod+3,f
  3439  021B                     u1813:
  3440  021B                     l2179:
  3441  021B  0830               	movf	___flmul@b+2,w
  3442  021C  00B6               	movwf	??___flmul
  3443  021D  0836               	movf	??___flmul,w
  3444  021E  00A0               	movwf	__Umul8_16@multiplicand
  3445  021F  0833               	movf	___flmul@a+1,w
  3446  0220  120A  158A  250D  120A  118A  	fcall	__Umul8_16
  3447  0225  1283               	bcf	3,5	;RP0=0, select bank0
  3448  0226  1303               	bcf	3,6	;RP1=0, select bank0
  3449  0227  0821               	movf	?__Umul8_16+1,w
  3450  0228  00C7               	movwf	___flmul@temp+1
  3451  0229  0820               	movf	?__Umul8_16,w
  3452  022A  00C6               	movwf	___flmul@temp
  3453  022B                     l2181:
  3454  022B  0846               	movf	___flmul@temp,w
  3455  022C  00B6               	movwf	??___flmul
  3456  022D  0847               	movf	___flmul@temp+1,w
  3457  022E  00B7               	movwf	??___flmul+1
  3458  022F  01B8               	clrf	??___flmul+2
  3459  0230  01B9               	clrf	??___flmul+3
  3460  0231  0836               	movf	??___flmul,w
  3461  0232  07C2               	addwf	___flmul@prod,f
  3462  0233  0837               	movf	??___flmul+1,w
  3463  0234  1103               	clrz
  3464  0235  1803               	skipnc
  3465  0236  3E01               	addlw	1
  3466  0237  1903               	skipnz
  3467  0238  2A3A               	goto	u1821
  3468  0239  07C3               	addwf	___flmul@prod+1,f
  3469  023A                     u1821:
  3470  023A  0838               	movf	??___flmul+2,w
  3471  023B  1103               	clrz
  3472  023C  1803               	skipnc
  3473  023D  3E01               	addlw	1
  3474  023E  1903               	skipnz
  3475  023F  2A41               	goto	u1822
  3476  0240  07C4               	addwf	___flmul@prod+2,f
  3477  0241                     u1822:
  3478  0241  0839               	movf	??___flmul+3,w
  3479  0242  1103               	clrz
  3480  0243  1803               	skipnc
  3481  0244  3E01               	addlw	1
  3482  0245  1903               	skipnz
  3483  0246  2A48               	goto	u1823
  3484  0247  07C5               	addwf	___flmul@prod+3,f
  3485  0248                     u1823:
  3486  0248  0830               	movf	___flmul@b+2,w
  3487  0249  00B6               	movwf	??___flmul
  3488  024A  0836               	movf	??___flmul,w
  3489  024B  00A0               	movwf	__Umul8_16@multiplicand
  3490  024C  0834               	movf	___flmul@a+2,w
  3491  024D  120A  158A  250D  120A  118A  	fcall	__Umul8_16
  3492  0252  1283               	bcf	3,5	;RP0=0, select bank0
  3493  0253  1303               	bcf	3,6	;RP1=0, select bank0
  3494  0254  0821               	movf	?__Umul8_16+1,w
  3495  0255  00C7               	movwf	___flmul@temp+1
  3496  0256  0820               	movf	?__Umul8_16,w
  3497  0257  00C6               	movwf	___flmul@temp
  3498  0258                     l2183:
  3499  0258  0846               	movf	___flmul@temp,w
  3500  0259  00B6               	movwf	??___flmul
  3501  025A  0847               	movf	___flmul@temp+1,w
  3502  025B  00B7               	movwf	??___flmul+1
  3503  025C  01B8               	clrf	??___flmul+2
  3504  025D  01B9               	clrf	??___flmul+3
  3505  025E  3008               	movlw	8
  3506  025F                     u1835:
  3507  025F  1003               	clrc
  3508  0260  0DB6               	rlf	??___flmul,f
  3509  0261  0DB7               	rlf	??___flmul+1,f
  3510  0262  0DB8               	rlf	??___flmul+2,f
  3511  0263  0DB9               	rlf	??___flmul+3,f
  3512  0264                     u1830:
  3513  0264  3EFF               	addlw	-1
  3514  0265  1D03               	skipz
  3515  0266  2A5F               	goto	u1835
  3516  0267  0836               	movf	??___flmul,w
  3517  0268  07C2               	addwf	___flmul@prod,f
  3518  0269  0837               	movf	??___flmul+1,w
  3519  026A  1103               	clrz
  3520  026B  1803               	skipnc
  3521  026C  3E01               	addlw	1
  3522  026D  1903               	skipnz
  3523  026E  2A70               	goto	u1841
  3524  026F  07C3               	addwf	___flmul@prod+1,f
  3525  0270                     u1841:
  3526  0270  0838               	movf	??___flmul+2,w
  3527  0271  1103               	clrz
  3528  0272  1803               	skipnc
  3529  0273  3E01               	addlw	1
  3530  0274  1903               	skipnz
  3531  0275  2A77               	goto	u1842
  3532  0276  07C4               	addwf	___flmul@prod+2,f
  3533  0277                     u1842:
  3534  0277  0839               	movf	??___flmul+3,w
  3535  0278  1103               	clrz
  3536  0279  1803               	skipnc
  3537  027A  3E01               	addlw	1
  3538  027B  1903               	skipnz
  3539  027C  2A7E               	goto	u1843
  3540  027D  07C5               	addwf	___flmul@prod+3,f
  3541  027E                     u1843:
  3542  027E                     l2185:
  3543  027E  083C               	movf	___flmul@grs,w
  3544  027F  00B6               	movwf	??___flmul
  3545  0280  083D               	movf	___flmul@grs+1,w
  3546  0281  00B7               	movwf	??___flmul+1
  3547  0282  083E               	movf	___flmul@grs+2,w
  3548  0283  00B8               	movwf	??___flmul+2
  3549  0284  083F               	movf	___flmul@grs+3,w
  3550  0285  00B9               	movwf	??___flmul+3
  3551  0286  3018               	movlw	24
  3552  0287                     u1855:
  3553  0287  1003               	clrc
  3554  0288  0CB9               	rrf	??___flmul+3,f
  3555  0289  0CB8               	rrf	??___flmul+2,f
  3556  028A  0CB7               	rrf	??___flmul+1,f
  3557  028B  0CB6               	rrf	??___flmul,f
  3558  028C                     u1850:
  3559  028C  3EFF               	addlw	-1
  3560  028D  1D03               	skipz
  3561  028E  2A87               	goto	u1855
  3562  028F  0836               	movf	??___flmul,w
  3563  0290  07C2               	addwf	___flmul@prod,f
  3564  0291  0837               	movf	??___flmul+1,w
  3565  0292  1103               	clrz
  3566  0293  1803               	skipnc
  3567  0294  3E01               	addlw	1
  3568  0295  1903               	skipnz
  3569  0296  2A98               	goto	u1861
  3570  0297  07C3               	addwf	___flmul@prod+1,f
  3571  0298                     u1861:
  3572  0298  0838               	movf	??___flmul+2,w
  3573  0299  1103               	clrz
  3574  029A  1803               	skipnc
  3575  029B  3E01               	addlw	1
  3576  029C  1903               	skipnz
  3577  029D  2A9F               	goto	u1862
  3578  029E  07C4               	addwf	___flmul@prod+2,f
  3579  029F                     u1862:
  3580  029F  0839               	movf	??___flmul+3,w
  3581  02A0  1103               	clrz
  3582  02A1  1803               	skipnc
  3583  02A2  3E01               	addlw	1
  3584  02A3  1903               	skipnz
  3585  02A4  2AA6               	goto	u1863
  3586  02A5  07C5               	addwf	___flmul@prod+3,f
  3587  02A6                     u1863:
  3588  02A6                     l2187:
  3589  02A6  3008               	movlw	8
  3590  02A7  00B6               	movwf	??___flmul
  3591  02A8                     u1875:
  3592  02A8  1003               	clrc
  3593  02A9  0DBC               	rlf	___flmul@grs,f
  3594  02AA  0DBD               	rlf	___flmul@grs+1,f
  3595  02AB  0DBE               	rlf	___flmul@grs+2,f
  3596  02AC  0DBF               	rlf	___flmul@grs+3,f
  3597  02AD  0BB6               	decfsz	??___flmul,f
  3598  02AE  2AA8               	goto	u1875
  3599  02AF                     l2189:
  3600  02AF  0841               	movf	___flmul@bexp,w
  3601  02B0  0740               	addwf	___flmul@aexp,w
  3602  02B1  00B6               	movwf	??___flmul
  3603  02B2  01B7               	clrf	??___flmul+1
  3604  02B3  0DB7               	rlf	??___flmul+1,f
  3605  02B4  0836               	movf	??___flmul,w
  3606  02B5  3E82               	addlw	130
  3607  02B6  00C6               	movwf	___flmul@temp
  3608  02B7  0837               	movf	??___flmul+1,w
  3609  02B8  1803               	skipnc
  3610  02B9  3E01               	addlw	1
  3611  02BA  3EFF               	addlw	255
  3612  02BB  00C7               	movwf	___flmul@temp+1
  3613  02BC  2ADA               	goto	l2201
  3614  02BD                     l2191:
  3615  02BD  3001               	movlw	1
  3616  02BE  00B6               	movwf	??___flmul
  3617  02BF                     u1885:
  3618  02BF  1003               	clrc
  3619  02C0  0DC2               	rlf	___flmul@prod,f
  3620  02C1  0DC3               	rlf	___flmul@prod+1,f
  3621  02C2  0DC4               	rlf	___flmul@prod+2,f
  3622  02C3  0DC5               	rlf	___flmul@prod+3,f
  3623  02C4  0BB6               	decfsz	??___flmul,f
  3624  02C5  2ABF               	goto	u1885
  3625  02C6                     l2193:
  3626  02C6  1FBF               	btfss	___flmul@grs+3,7
  3627  02C7  2AC9               	goto	u1891
  3628  02C8  2ACA               	goto	u1890
  3629  02C9                     u1891:
  3630  02C9  2ACB               	goto	l2197
  3631  02CA                     u1890:
  3632  02CA                     l2195:
  3633  02CA  1442               	bsf	___flmul@prod,0
  3634  02CB                     l2197:
  3635  02CB  3001               	movlw	1
  3636  02CC  00B6               	movwf	??___flmul
  3637  02CD                     u1905:
  3638  02CD  1003               	clrc
  3639  02CE  0DBC               	rlf	___flmul@grs,f
  3640  02CF  0DBD               	rlf	___flmul@grs+1,f
  3641  02D0  0DBE               	rlf	___flmul@grs+2,f
  3642  02D1  0DBF               	rlf	___flmul@grs+3,f
  3643  02D2  0BB6               	decfsz	??___flmul,f
  3644  02D3  2ACD               	goto	u1905
  3645  02D4                     l2199:
  3646  02D4  30FF               	movlw	255
  3647  02D5  07C6               	addwf	___flmul@temp,f
  3648  02D6  1803               	skipnc
  3649  02D7  0AC7               	incf	___flmul@temp+1,f
  3650  02D8  30FF               	movlw	255
  3651  02D9  07C7               	addwf	___flmul@temp+1,f
  3652  02DA                     l2201:
  3653  02DA  1FC4               	btfss	___flmul@prod+2,7
  3654  02DB  2ADD               	goto	u1911
  3655  02DC  2ADE               	goto	u1910
  3656  02DD                     u1911:
  3657  02DD  2ABD               	goto	l2191
  3658  02DE                     u1910:
  3659  02DE                     l2203:
  3660  02DE  01C0               	clrf	___flmul@aexp
  3661  02DF                     l2205:
  3662  02DF  1FBF               	btfss	___flmul@grs+3,7
  3663  02E0  2AE2               	goto	u1921
  3664  02E1  2AE3               	goto	u1920
  3665  02E2                     u1921:
  3666  02E2  2AFF               	goto	l2213
  3667  02E3                     u1920:
  3668  02E3                     l2207:
  3669  02E3  30FF               	movlw	255
  3670  02E4  053C               	andwf	___flmul@grs,w
  3671  02E5  00B6               	movwf	??___flmul
  3672  02E6  30FF               	movlw	255
  3673  02E7  053D               	andwf	___flmul@grs+1,w
  3674  02E8  00B7               	movwf	??___flmul+1
  3675  02E9  30FF               	movlw	255
  3676  02EA  053E               	andwf	___flmul@grs+2,w
  3677  02EB  00B8               	movwf	??___flmul+2
  3678  02EC  307F               	movlw	127
  3679  02ED  053F               	andwf	___flmul@grs+3,w
  3680  02EE  00B9               	movwf	??___flmul+3
  3681  02EF  0839               	movf	??___flmul+3,w
  3682  02F0  0438               	iorwf	??___flmul+2,w
  3683  02F1  0437               	iorwf	??___flmul+1,w
  3684  02F2  0436               	iorwf	??___flmul,w
  3685  02F3  1903               	skipnz
  3686  02F4  2AF6               	goto	u1931
  3687  02F5  2AF7               	goto	u1930
  3688  02F6                     u1931:
  3689  02F6  2AFA               	goto	l836
  3690  02F7                     u1930:
  3691  02F7                     l2209:
  3692  02F7  01C0               	clrf	___flmul@aexp
  3693  02F8  0AC0               	incf	___flmul@aexp,f
  3694  02F9  2AFF               	goto	l2213
  3695  02FA                     l836:
  3696  02FA  1C42               	btfss	___flmul@prod,0
  3697  02FB  2AFD               	goto	u1941
  3698  02FC  2AFE               	goto	u1940
  3699  02FD                     u1941:
  3700  02FD  2AFF               	goto	l2213
  3701  02FE                     u1940:
  3702  02FE  2AF7               	goto	l2209
  3703  02FF                     l2213:
  3704  02FF  0840               	movf	___flmul@aexp,w
  3705  0300  1903               	btfsc	3,2
  3706  0301  2B03               	goto	u1951
  3707  0302  2B04               	goto	u1950
  3708  0303                     u1951:
  3709  0303  2B35               	goto	l2223
  3710  0304                     u1950:
  3711  0304                     l2215:
  3712  0304  3001               	movlw	1
  3713  0305  07C2               	addwf	___flmul@prod,f
  3714  0306  3000               	movlw	0
  3715  0307  1803               	skipnc
  3716  0308  3001               	movlw	1
  3717  0309  07C3               	addwf	___flmul@prod+1,f
  3718  030A  3000               	movlw	0
  3719  030B  1803               	skipnc
  3720  030C  3001               	movlw	1
  3721  030D  07C4               	addwf	___flmul@prod+2,f
  3722  030E  3000               	movlw	0
  3723  030F  1803               	skipnc
  3724  0310  3001               	movlw	1
  3725  0311  07C5               	addwf	___flmul@prod+3,f
  3726  0312                     l2217:
  3727  0312  1C45               	btfss	___flmul@prod+3,0
  3728  0313  2B15               	goto	u1961
  3729  0314  2B16               	goto	u1960
  3730  0315                     u1961:
  3731  0315  2B35               	goto	l2223
  3732  0316                     u1960:
  3733  0316                     l2219:
  3734  0316  0842               	movf	___flmul@prod,w
  3735  0317  00B6               	movwf	??___flmul
  3736  0318  0843               	movf	___flmul@prod+1,w
  3737  0319  00B7               	movwf	??___flmul+1
  3738  031A  0844               	movf	___flmul@prod+2,w
  3739  031B  00B8               	movwf	??___flmul+2
  3740  031C  0845               	movf	___flmul@prod+3,w
  3741  031D  00B9               	movwf	??___flmul+3
  3742  031E  3001               	movlw	1
  3743  031F  00BA               	movwf	??___flmul+4
  3744  0320                     u1975:
  3745  0320  0D39               	rlf	??___flmul+3,w
  3746  0321  0CB9               	rrf	??___flmul+3,f
  3747  0322  0CB8               	rrf	??___flmul+2,f
  3748  0323  0CB7               	rrf	??___flmul+1,f
  3749  0324  0CB6               	rrf	??___flmul,f
  3750  0325                     u1970:
  3751  0325  0BBA               	decfsz	??___flmul+4,f
  3752  0326  2B20               	goto	u1975
  3753  0327  0839               	movf	??___flmul+3,w
  3754  0328  00C5               	movwf	___flmul@prod+3
  3755  0329  0838               	movf	??___flmul+2,w
  3756  032A  00C4               	movwf	___flmul@prod+2
  3757  032B  0837               	movf	??___flmul+1,w
  3758  032C  00C3               	movwf	___flmul@prod+1
  3759  032D  0836               	movf	??___flmul,w
  3760  032E  00C2               	movwf	___flmul@prod
  3761  032F                     l2221:
  3762  032F  3001               	movlw	1
  3763  0330  07C6               	addwf	___flmul@temp,f
  3764  0331  1803               	skipnc
  3765  0332  0AC7               	incf	___flmul@temp+1,f
  3766  0333  3000               	movlw	0
  3767  0334  07C7               	addwf	___flmul@temp+1,f
  3768  0335                     l2223:
  3769  0335  0847               	movf	___flmul@temp+1,w
  3770  0336  3A80               	xorlw	128
  3771  0337  00FF               	movwf	btemp+1
  3772  0338  3080               	movlw	128
  3773  0339  027F               	subwf	btemp+1,w
  3774  033A  1D03               	skipz
  3775  033B  2B3E               	goto	u1985
  3776  033C  30FF               	movlw	255
  3777  033D  0246               	subwf	___flmul@temp,w
  3778  033E                     u1985:
  3779  033E  1C03               	skipc
  3780  033F  2B41               	goto	u1981
  3781  0340  2B42               	goto	u1980
  3782  0341                     u1981:
  3783  0341  2B4D               	goto	l2227
  3784  0342                     u1980:
  3785  0342                     l2225:
  3786  0342  307F               	movlw	127
  3787  0343  1283               	bcf	3,5	;RP0=0, select bank0
  3788  0344  1303               	bcf	3,6	;RP1=0, select bank0
  3789  0345  00C5               	movwf	___flmul@prod+3
  3790  0346  3080               	movlw	128
  3791  0347  00C4               	movwf	___flmul@prod+2
  3792  0348  3000               	movlw	0
  3793  0349  00C3               	movwf	___flmul@prod+1
  3794  034A  3000               	movlw	0
  3795  034B  00C2               	movwf	___flmul@prod
  3796  034C  2B82               	goto	l842
  3797  034D                     l2227:
  3798  034D  1283               	bcf	3,5	;RP0=0, select bank0
  3799  034E  1303               	bcf	3,6	;RP1=0, select bank0
  3800  034F  0847               	movf	___flmul@temp+1,w
  3801  0350  3A80               	xorlw	128
  3802  0351  00FF               	movwf	btemp+1
  3803  0352  3080               	movlw	128
  3804  0353  027F               	subwf	btemp+1,w
  3805  0354  1D03               	skipz
  3806  0355  2B58               	goto	u1995
  3807  0356  3001               	movlw	1
  3808  0357  0246               	subwf	___flmul@temp,w
  3809  0358                     u1995:
  3810  0358  1803               	skipnc
  3811  0359  2B5B               	goto	u1991
  3812  035A  2B5C               	goto	u1990
  3813  035B                     u1991:
  3814  035B  2B68               	goto	l2233
  3815  035C                     u1990:
  3816  035C                     l2229:
  3817  035C  3000               	movlw	0
  3818  035D  1283               	bcf	3,5	;RP0=0, select bank0
  3819  035E  1303               	bcf	3,6	;RP1=0, select bank0
  3820  035F  00C5               	movwf	___flmul@prod+3
  3821  0360  3000               	movlw	0
  3822  0361  00C4               	movwf	___flmul@prod+2
  3823  0362  3000               	movlw	0
  3824  0363  00C3               	movwf	___flmul@prod+1
  3825  0364  3000               	movlw	0
  3826  0365  00C2               	movwf	___flmul@prod
  3827  0366                     l2231:
  3828  0366  01BB               	clrf	___flmul@sign
  3829  0367  2B82               	goto	l842
  3830  0368                     l2233:
  3831  0368  1283               	bcf	3,5	;RP0=0, select bank0
  3832  0369  1303               	bcf	3,6	;RP1=0, select bank0
  3833  036A  0846               	movf	___flmul@temp,w
  3834  036B  00B6               	movwf	??___flmul
  3835  036C  0836               	movf	??___flmul,w
  3836  036D  00C1               	movwf	___flmul@bexp
  3837  036E  30FF               	movlw	255
  3838  036F  05C2               	andwf	___flmul@prod,f
  3839  0370  30FF               	movlw	255
  3840  0371  05C3               	andwf	___flmul@prod+1,f
  3841  0372  307F               	movlw	127
  3842  0373  05C4               	andwf	___flmul@prod+2,f
  3843  0374  3000               	movlw	0
  3844  0375  05C5               	andwf	___flmul@prod+3,f
  3845  0376                     l2235:
  3846  0376  1C41               	btfss	___flmul@bexp,0
  3847  0377  2B79               	goto	u2001
  3848  0378  2B7A               	goto	u2000
  3849  0379                     u2001:
  3850  0379  2B7B               	goto	l2239
  3851  037A                     u2000:
  3852  037A                     l2237:
  3853  037A  17C4               	bsf	___flmul@prod+2,7
  3854  037B                     l2239:
  3855  037B  0841               	movf	___flmul@bexp,w
  3856  037C  00B6               	movwf	??___flmul
  3857  037D  1003               	clrc
  3858  037E  0C36               	rrf	??___flmul,w
  3859  037F  00B7               	movwf	??___flmul+1
  3860  0380  0837               	movf	??___flmul+1,w
  3861  0381  00C5               	movwf	___flmul@prod+3
  3862  0382                     l842:
  3863  0382  083B               	movf	___flmul@sign,w
  3864  0383  00B6               	movwf	??___flmul
  3865  0384  0836               	movf	??___flmul,w
  3866  0385  04C5               	iorwf	___flmul@prod+3,f
  3867  0386                     l2241:
  3868  0386  0845               	movf	___flmul@prod+3,w
  3869  0387  00B1               	movwf	?___flmul+3
  3870  0388  0844               	movf	___flmul@prod+2,w
  3871  0389  00B0               	movwf	?___flmul+2
  3872  038A  0843               	movf	___flmul@prod+1,w
  3873  038B  00AF               	movwf	?___flmul+1
  3874  038C  0842               	movf	___flmul@prod,w
  3875  038D  00AE               	movwf	?___flmul
  3876  038E                     l830:
  3877  038E  0008               	return
  3878  038F                     __end_of___flmul:
  3879                           
  3880                           	psect	text9
  3881  0D0D                     __ptext9:	
  3882 ;; *************** function __Umul8_16 *****************
  3883 ;; Defined at:
  3884 ;;		line 4 in file "C:\Program Files\Microchip\xc8\v2.31\pic\sources\c90\common\Umul8_16.c"
  3885 ;; Parameters:    Size  Location     Type
  3886 ;;  multiplier      1    wreg     unsigned char 
  3887 ;;  multiplicand    1    0[BANK0 ] unsigned char 
  3888 ;; Auto vars:     Size  Location     Type
  3889 ;;  multiplier      1    8[BANK0 ] unsigned char 
  3890 ;;  word_mpld       2    6[BANK0 ] unsigned int 
  3891 ;;  product         2    4[BANK0 ] unsigned int 
  3892 ;; Return value:  Size  Location     Type
  3893 ;;                  2    0[BANK0 ] unsigned int 
  3894 ;; Registers used:
  3895 ;;		wreg, status,2, status,0
  3896 ;; Tracked objects:
  3897 ;;		On entry : 0/0
  3898 ;;		On exit  : 0/0
  3899 ;;		Unchanged: 0/0
  3900 ;; Data sizes:     COMMON   BANK0   BANK1   BANK3   BANK2
  3901 ;;      Params:         0       2       0       0       0
  3902 ;;      Locals:         0       5       0       0       0
  3903 ;;      Temps:          0       2       0       0       0
  3904 ;;      Totals:         0       9       0       0       0
  3905 ;;Total ram usage:        9 bytes
  3906 ;; Hardware stack levels used:    1
  3907 ;; Hardware stack levels required when called:    2
  3908 ;; This function calls:
  3909 ;;		Nothing
  3910 ;; This function is called by:
  3911 ;;		___flmul
  3912 ;; This function uses a non-reentrant model
  3913 ;;
  3914                           
  3915                           
  3916                           ;psect for function __Umul8_16
  3917  0D0D                     __Umul8_16:
  3918                           
  3919                           ;incstack = 0
  3920                           ; Regs used in __Umul8_16: [wreg+status,2+status,0]
  3921                           ;__Umul8_16@multiplier stored from wreg
  3922  0D0D  1283               	bcf	3,5	;RP0=0, select bank0
  3923  0D0E  1303               	bcf	3,6	;RP1=0, select bank0
  3924  0D0F  00A8               	movwf	__Umul8_16@multiplier
  3925  0D10                     l1883:
  3926  0D10  01A4               	clrf	__Umul8_16@product
  3927  0D11  01A5               	clrf	__Umul8_16@product+1
  3928  0D12                     l1885:
  3929  0D12  0820               	movf	__Umul8_16@multiplicand,w
  3930  0D13  00A2               	movwf	??__Umul8_16
  3931  0D14  01A3               	clrf	??__Umul8_16+1
  3932  0D15  0822               	movf	??__Umul8_16,w
  3933  0D16  00A6               	movwf	__Umul8_16@word_mpld
  3934  0D17  0823               	movf	??__Umul8_16+1,w
  3935  0D18  00A7               	movwf	__Umul8_16@word_mpld+1
  3936  0D19                     l1887:
  3937  0D19  1C28               	btfss	__Umul8_16@multiplier,0
  3938  0D1A  2D1C               	goto	u1411
  3939  0D1B  2D1D               	goto	u1410
  3940  0D1C                     u1411:
  3941  0D1C  2D23               	goto	l849
  3942  0D1D                     u1410:
  3943  0D1D                     l1889:
  3944  0D1D  0826               	movf	__Umul8_16@word_mpld,w
  3945  0D1E  07A4               	addwf	__Umul8_16@product,f
  3946  0D1F  1803               	skipnc
  3947  0D20  0AA5               	incf	__Umul8_16@product+1,f
  3948  0D21  0827               	movf	__Umul8_16@word_mpld+1,w
  3949  0D22  07A5               	addwf	__Umul8_16@product+1,f
  3950  0D23                     l849:
  3951  0D23  3001               	movlw	1
  3952  0D24                     u1425:
  3953  0D24  1003               	clrc
  3954  0D25  0DA6               	rlf	__Umul8_16@word_mpld,f
  3955  0D26  0DA7               	rlf	__Umul8_16@word_mpld+1,f
  3956  0D27  3EFF               	addlw	-1
  3957  0D28  1D03               	skipz
  3958  0D29  2D24               	goto	u1425
  3959  0D2A  1003               	clrc
  3960  0D2B  0CA8               	rrf	__Umul8_16@multiplier,f
  3961  0D2C                     l1891:
  3962  0D2C  0828               	movf	__Umul8_16@multiplier,w
  3963  0D2D  1D03               	btfss	3,2
  3964  0D2E  2D30               	goto	u1431
  3965  0D2F  2D31               	goto	u1430
  3966  0D30                     u1431:
  3967  0D30  2D19               	goto	l1887
  3968  0D31                     u1430:
  3969  0D31                     l1893:
  3970  0D31  0825               	movf	__Umul8_16@product+1,w
  3971  0D32  00A1               	movwf	?__Umul8_16+1
  3972  0D33  0824               	movf	__Umul8_16@product,w
  3973  0D34  00A0               	movwf	?__Umul8_16
  3974  0D35                     l851:
  3975  0D35  0008               	return
  3976  0D36                     __end_of__Umul8_16:
  3977                           
  3978                           	psect	text10
  3979  0F10                     __ptext10:	
  3980 ;; *************** function _VAL *****************
  3981 ;; Defined at:
  3982 ;;		line 395 in file "master_main.c"
  3983 ;; Parameters:    Size  Location     Type
  3984 ;;  variable        2    8[BANK0 ] unsigned int 
  3985 ;; Auto vars:     Size  Location     Type
  3986 ;;  valor           2   12[BANK0 ] unsigned int 
  3987 ;; Return value:  Size  Location     Type
  3988 ;;                  1    wreg      void 
  3989 ;; Registers used:
  3990 ;;		wreg, status,2, status,0, pclath, cstack
  3991 ;; Tracked objects:
  3992 ;;		On entry : 0/0
  3993 ;;		On exit  : 0/0
  3994 ;;		Unchanged: 0/0
  3995 ;; Data sizes:     COMMON   BANK0   BANK1   BANK3   BANK2
  3996 ;;      Params:         0       2       0       0       0
  3997 ;;      Locals:         0       2       0       0       0
  3998 ;;      Temps:          0       2       0       0       0
  3999 ;;      Totals:         0       6       0       0       0
  4000 ;;Total ram usage:        6 bytes
  4001 ;; Hardware stack levels used:    1
  4002 ;; Hardware stack levels required when called:    3
  4003 ;; This function calls:
  4004 ;;		___lwdiv
  4005 ;;		___wmul
  4006 ;; This function is called by:
  4007 ;;		_main
  4008 ;; This function uses a non-reentrant model
  4009 ;;
  4010                           
  4011                           
  4012                           ;psect for function _VAL
  4013  0F10                     _VAL:
  4014  0F10                     l2039:	
  4015                           ;incstack = 0
  4016                           ; Regs used in _VAL: [wreg+status,2+status,0+pclath+cstack]
  4017                           
  4018  0F10  1283               	bcf	3,5	;RP0=0, select bank0
  4019  0F11  1303               	bcf	3,6	;RP1=0, select bank0
  4020  0F12  0829               	movf	VAL@variable+1,w
  4021  0F13  00AD               	movwf	VAL@valor+1
  4022  0F14  0828               	movf	VAL@variable,w
  4023  0F15  00AC               	movwf	VAL@valor
  4024  0F16                     l2041:
  4025  0F16  3064               	movlw	100
  4026  0F17  00A0               	movwf	___lwdiv@divisor
  4027  0F18  3000               	movlw	0
  4028  0F19  00A1               	movwf	___lwdiv@divisor+1
  4029  0F1A  082D               	movf	VAL@valor+1,w
  4030  0F1B  00A3               	movwf	___lwdiv@dividend+1
  4031  0F1C  082C               	movf	VAL@valor,w
  4032  0F1D  00A2               	movwf	___lwdiv@dividend
  4033  0F1E  120A  158A  25A2  120A  158A  	fcall	___lwdiv
  4034  0F23  1283               	bcf	3,5	;RP0=0, select bank0
  4035  0F24  1303               	bcf	3,6	;RP1=0, select bank0
  4036  0F25  0820               	movf	?___lwdiv,w
  4037  0F26  00AA               	movwf	??_VAL
  4038  0F27  082A               	movf	??_VAL,w
  4039  0F28  00EE               	movwf	_POS1
  4040  0F29                     l2043:
  4041  0F29  086E               	movf	_POS1,w
  4042  0F2A  00AA               	movwf	??_VAL
  4043  0F2B  01AB               	clrf	??_VAL+1
  4044  0F2C  082A               	movf	??_VAL,w
  4045  0F2D  00A0               	movwf	___wmul@multiplier
  4046  0F2E  082B               	movf	??_VAL+1,w
  4047  0F2F  00A1               	movwf	___wmul@multiplier+1
  4048  0F30  309C               	movlw	156
  4049  0F31  00A2               	movwf	___wmul@multiplicand
  4050  0F32  30FF               	movlw	255
  4051  0F33  00A3               	movwf	___wmul@multiplicand+1
  4052  0F34  120A  158A  24BD  120A  158A  	fcall	___wmul
  4053  0F39  1283               	bcf	3,5	;RP0=0, select bank0
  4054  0F3A  1303               	bcf	3,6	;RP1=0, select bank0
  4055  0F3B  082C               	movf	VAL@valor,w
  4056  0F3C  0720               	addwf	?___wmul,w
  4057  0F3D  00AC               	movwf	VAL@valor
  4058  0F3E  082D               	movf	VAL@valor+1,w
  4059  0F3F  1803               	skipnc
  4060  0F40  0A2D               	incf	VAL@valor+1,w
  4061  0F41  0721               	addwf	?___wmul+1,w
  4062  0F42  00AD               	movwf	VAL@valor+1
  4063  0F43                     l2045:
  4064  0F43  300A               	movlw	10
  4065  0F44  00A0               	movwf	___lwdiv@divisor
  4066  0F45  3000               	movlw	0
  4067  0F46  00A1               	movwf	___lwdiv@divisor+1
  4068  0F47  082D               	movf	VAL@valor+1,w
  4069  0F48  00A3               	movwf	___lwdiv@dividend+1
  4070  0F49  082C               	movf	VAL@valor,w
  4071  0F4A  00A2               	movwf	___lwdiv@dividend
  4072  0F4B  120A  158A  25A2  120A  158A  	fcall	___lwdiv
  4073  0F50  1283               	bcf	3,5	;RP0=0, select bank0
  4074  0F51  1303               	bcf	3,6	;RP1=0, select bank0
  4075  0F52  0820               	movf	?___lwdiv,w
  4076  0F53  00AA               	movwf	??_VAL
  4077  0F54  082A               	movf	??_VAL,w
  4078  0F55  00ED               	movwf	_POS2
  4079  0F56                     l2047:
  4080  0F56  086D               	movf	_POS2,w
  4081  0F57  00AA               	movwf	??_VAL
  4082  0F58  01AB               	clrf	??_VAL+1
  4083  0F59  082A               	movf	??_VAL,w
  4084  0F5A  00A0               	movwf	___wmul@multiplier
  4085  0F5B  082B               	movf	??_VAL+1,w
  4086  0F5C  00A1               	movwf	___wmul@multiplier+1
  4087  0F5D  30F6               	movlw	246
  4088  0F5E  00A2               	movwf	___wmul@multiplicand
  4089  0F5F  30FF               	movlw	255
  4090  0F60  00A3               	movwf	___wmul@multiplicand+1
  4091  0F61  120A  158A  24BD  120A  158A  	fcall	___wmul
  4092  0F66  1283               	bcf	3,5	;RP0=0, select bank0
  4093  0F67  1303               	bcf	3,6	;RP1=0, select bank0
  4094  0F68  082C               	movf	VAL@valor,w
  4095  0F69  0720               	addwf	?___wmul,w
  4096  0F6A  00AC               	movwf	VAL@valor
  4097  0F6B  082D               	movf	VAL@valor+1,w
  4098  0F6C  1803               	skipnc
  4099  0F6D  0A2D               	incf	VAL@valor+1,w
  4100  0F6E  0721               	addwf	?___wmul+1,w
  4101  0F6F  00AD               	movwf	VAL@valor+1
  4102  0F70  082C               	movf	VAL@valor,w
  4103  0F71  00AA               	movwf	??_VAL
  4104  0F72  082A               	movf	??_VAL,w
  4105  0F73  00EC               	movwf	_POS3
  4106  0F74                     l2049:
  4107  0F74  086E               	movf	_POS1,w
  4108  0F75  3E30               	addlw	48
  4109  0F76  00AA               	movwf	??_VAL
  4110  0F77  082A               	movf	??_VAL,w
  4111  0F78  00EE               	movwf	_POS1
  4112  0F79                     l2051:
  4113  0F79  086D               	movf	_POS2,w
  4114  0F7A  3E30               	addlw	48
  4115  0F7B  00AA               	movwf	??_VAL
  4116  0F7C  082A               	movf	??_VAL,w
  4117  0F7D  00ED               	movwf	_POS2
  4118  0F7E                     l2053:
  4119  0F7E  086C               	movf	_POS3,w
  4120  0F7F  3E30               	addlw	48
  4121  0F80  00AA               	movwf	??_VAL
  4122  0F81  082A               	movf	??_VAL,w
  4123  0F82  00EC               	movwf	_POS3
  4124  0F83                     l330:
  4125  0F83  0008               	return
  4126  0F84                     __end_of_VAL:
  4127                           
  4128                           	psect	text11
  4129  0CBD                     __ptext11:	
  4130 ;; *************** function ___wmul *****************
  4131 ;; Defined at:
  4132 ;;		line 15 in file "C:\Program Files\Microchip\xc8\v2.31\pic\sources\c90\common\Umul16.c"
  4133 ;; Parameters:    Size  Location     Type
  4134 ;;  multiplier      2    0[BANK0 ] unsigned int 
  4135 ;;  multiplicand    2    2[BANK0 ] unsigned int 
  4136 ;; Auto vars:     Size  Location     Type
  4137 ;;  product         2    4[BANK0 ] unsigned int 
  4138 ;; Return value:  Size  Location     Type
  4139 ;;                  2    0[BANK0 ] unsigned int 
  4140 ;; Registers used:
  4141 ;;		wreg, status,2, status,0
  4142 ;; Tracked objects:
  4143 ;;		On entry : 0/0
  4144 ;;		On exit  : 0/0
  4145 ;;		Unchanged: 0/0
  4146 ;; Data sizes:     COMMON   BANK0   BANK1   BANK3   BANK2
  4147 ;;      Params:         0       4       0       0       0
  4148 ;;      Locals:         0       2       0       0       0
  4149 ;;      Temps:          0       0       0       0       0
  4150 ;;      Totals:         0       6       0       0       0
  4151 ;;Total ram usage:        6 bytes
  4152 ;; Hardware stack levels used:    1
  4153 ;; Hardware stack levels required when called:    2
  4154 ;; This function calls:
  4155 ;;		Nothing
  4156 ;; This function is called by:
  4157 ;;		_VAL
  4158 ;; This function uses a non-reentrant model
  4159 ;;
  4160                           
  4161                           
  4162                           ;psect for function ___wmul
  4163  0CBD                     ___wmul:
  4164  0CBD                     l1843:	
  4165                           ;incstack = 0
  4166                           ; Regs used in ___wmul: [wreg+status,2+status,0]
  4167                           
  4168  0CBD  1283               	bcf	3,5	;RP0=0, select bank0
  4169  0CBE  1303               	bcf	3,6	;RP1=0, select bank0
  4170  0CBF  01A4               	clrf	___wmul@product
  4171  0CC0  01A5               	clrf	___wmul@product+1
  4172  0CC1                     l1845:
  4173  0CC1  1C20               	btfss	___wmul@multiplier,0
  4174  0CC2  2CC4               	goto	u1301
  4175  0CC3  2CC5               	goto	u1300
  4176  0CC4                     u1301:
  4177  0CC4  2CCB               	goto	l441
  4178  0CC5                     u1300:
  4179  0CC5                     l1847:
  4180  0CC5  0822               	movf	___wmul@multiplicand,w
  4181  0CC6  07A4               	addwf	___wmul@product,f
  4182  0CC7  1803               	skipnc
  4183  0CC8  0AA5               	incf	___wmul@product+1,f
  4184  0CC9  0823               	movf	___wmul@multiplicand+1,w
  4185  0CCA  07A5               	addwf	___wmul@product+1,f
  4186  0CCB                     l441:
  4187  0CCB  3001               	movlw	1
  4188  0CCC                     u1315:
  4189  0CCC  1003               	clrc
  4190  0CCD  0DA2               	rlf	___wmul@multiplicand,f
  4191  0CCE  0DA3               	rlf	___wmul@multiplicand+1,f
  4192  0CCF  3EFF               	addlw	-1
  4193  0CD0  1D03               	skipz
  4194  0CD1  2CCC               	goto	u1315
  4195  0CD2                     l1849:
  4196  0CD2  3001               	movlw	1
  4197  0CD3                     u1325:
  4198  0CD3  1003               	clrc
  4199  0CD4  0CA1               	rrf	___wmul@multiplier+1,f
  4200  0CD5  0CA0               	rrf	___wmul@multiplier,f
  4201  0CD6  3EFF               	addlw	-1
  4202  0CD7  1D03               	skipz
  4203  0CD8  2CD3               	goto	u1325
  4204  0CD9                     l1851:
  4205  0CD9  0820               	movf	___wmul@multiplier,w
  4206  0CDA  0421               	iorwf	___wmul@multiplier+1,w
  4207  0CDB  1D03               	btfss	3,2
  4208  0CDC  2CDE               	goto	u1331
  4209  0CDD  2CDF               	goto	u1330
  4210  0CDE                     u1331:
  4211  0CDE  2CC1               	goto	l1845
  4212  0CDF                     u1330:
  4213  0CDF                     l1853:
  4214  0CDF  0825               	movf	___wmul@product+1,w
  4215  0CE0  00A1               	movwf	?___wmul+1
  4216  0CE1  0824               	movf	___wmul@product,w
  4217  0CE2  00A0               	movwf	?___wmul
  4218  0CE3                     l443:
  4219  0CE3  0008               	return
  4220  0CE4                     __end_of___wmul:
  4221                           
  4222                           	psect	text12
  4223  0DA2                     __ptext12:	
  4224 ;; *************** function ___lwdiv *****************
  4225 ;; Defined at:
  4226 ;;		line 5 in file "C:\Program Files\Microchip\xc8\v2.31\pic\sources\c90\common\lwdiv.c"
  4227 ;; Parameters:    Size  Location     Type
  4228 ;;  divisor         2    0[BANK0 ] unsigned int 
  4229 ;;  dividend        2    2[BANK0 ] unsigned int 
  4230 ;; Auto vars:     Size  Location     Type
  4231 ;;  quotient        2    5[BANK0 ] unsigned int 
  4232 ;;  counter         1    7[BANK0 ] unsigned char 
  4233 ;; Return value:  Size  Location     Type
  4234 ;;                  2    0[BANK0 ] unsigned int 
  4235 ;; Registers used:
  4236 ;;		wreg, status,2, status,0
  4237 ;; Tracked objects:
  4238 ;;		On entry : 0/0
  4239 ;;		On exit  : 0/0
  4240 ;;		Unchanged: 0/0
  4241 ;; Data sizes:     COMMON   BANK0   BANK1   BANK3   BANK2
  4242 ;;      Params:         0       4       0       0       0
  4243 ;;      Locals:         0       3       0       0       0
  4244 ;;      Temps:          0       1       0       0       0
  4245 ;;      Totals:         0       8       0       0       0
  4246 ;;Total ram usage:        8 bytes
  4247 ;; Hardware stack levels used:    1
  4248 ;; Hardware stack levels required when called:    2
  4249 ;; This function calls:
  4250 ;;		Nothing
  4251 ;; This function is called by:
  4252 ;;		_VAL
  4253 ;; This function uses a non-reentrant model
  4254 ;;
  4255                           
  4256                           
  4257                           ;psect for function ___lwdiv
  4258  0DA2                     ___lwdiv:
  4259  0DA2                     l1857:	
  4260                           ;incstack = 0
  4261                           ; Regs used in ___lwdiv: [wreg+status,2+status,0]
  4262                           
  4263  0DA2  1283               	bcf	3,5	;RP0=0, select bank0
  4264  0DA3  1303               	bcf	3,6	;RP1=0, select bank0
  4265  0DA4  01A5               	clrf	___lwdiv@quotient
  4266  0DA5  01A6               	clrf	___lwdiv@quotient+1
  4267  0DA6                     l1859:
  4268  0DA6  0820               	movf	___lwdiv@divisor,w
  4269  0DA7  0421               	iorwf	___lwdiv@divisor+1,w
  4270  0DA8  1903               	btfsc	3,2
  4271  0DA9  2DAB               	goto	u1341
  4272  0DAA  2DAC               	goto	u1340
  4273  0DAB                     u1341:
  4274  0DAB  2DE3               	goto	l1879
  4275  0DAC                     u1340:
  4276  0DAC                     l1861:
  4277  0DAC  01A7               	clrf	___lwdiv@counter
  4278  0DAD  0AA7               	incf	___lwdiv@counter,f
  4279  0DAE  2DBA               	goto	l1867
  4280  0DAF                     l1863:
  4281  0DAF  3001               	movlw	1
  4282  0DB0                     u1355:
  4283  0DB0  1003               	clrc
  4284  0DB1  0DA0               	rlf	___lwdiv@divisor,f
  4285  0DB2  0DA1               	rlf	___lwdiv@divisor+1,f
  4286  0DB3  3EFF               	addlw	-1
  4287  0DB4  1D03               	skipz
  4288  0DB5  2DB0               	goto	u1355
  4289  0DB6                     l1865:
  4290  0DB6  3001               	movlw	1
  4291  0DB7  00A4               	movwf	??___lwdiv
  4292  0DB8  0824               	movf	??___lwdiv,w
  4293  0DB9  07A7               	addwf	___lwdiv@counter,f
  4294  0DBA                     l1867:
  4295  0DBA  1FA1               	btfss	___lwdiv@divisor+1,7
  4296  0DBB  2DBD               	goto	u1361
  4297  0DBC  2DBE               	goto	u1360
  4298  0DBD                     u1361:
  4299  0DBD  2DAF               	goto	l1863
  4300  0DBE                     u1360:
  4301  0DBE                     l1869:
  4302  0DBE  3001               	movlw	1
  4303  0DBF                     u1375:
  4304  0DBF  1003               	clrc
  4305  0DC0  0DA5               	rlf	___lwdiv@quotient,f
  4306  0DC1  0DA6               	rlf	___lwdiv@quotient+1,f
  4307  0DC2  3EFF               	addlw	-1
  4308  0DC3  1D03               	skipz
  4309  0DC4  2DBF               	goto	u1375
  4310  0DC5  0821               	movf	___lwdiv@divisor+1,w
  4311  0DC6  0223               	subwf	___lwdiv@dividend+1,w
  4312  0DC7  1D03               	skipz
  4313  0DC8  2DCB               	goto	u1385
  4314  0DC9  0820               	movf	___lwdiv@divisor,w
  4315  0DCA  0222               	subwf	___lwdiv@dividend,w
  4316  0DCB                     u1385:
  4317  0DCB  1C03               	skipc
  4318  0DCC  2DCE               	goto	u1381
  4319  0DCD  2DCF               	goto	u1380
  4320  0DCE                     u1381:
  4321  0DCE  2DD6               	goto	l1875
  4322  0DCF                     u1380:
  4323  0DCF                     l1871:
  4324  0DCF  0820               	movf	___lwdiv@divisor,w
  4325  0DD0  02A2               	subwf	___lwdiv@dividend,f
  4326  0DD1  0821               	movf	___lwdiv@divisor+1,w
  4327  0DD2  1C03               	skipc
  4328  0DD3  03A3               	decf	___lwdiv@dividend+1,f
  4329  0DD4  02A3               	subwf	___lwdiv@dividend+1,f
  4330  0DD5                     l1873:
  4331  0DD5  1425               	bsf	___lwdiv@quotient,0
  4332  0DD6                     l1875:
  4333  0DD6  3001               	movlw	1
  4334  0DD7                     u1395:
  4335  0DD7  1003               	clrc
  4336  0DD8  0CA1               	rrf	___lwdiv@divisor+1,f
  4337  0DD9  0CA0               	rrf	___lwdiv@divisor,f
  4338  0DDA  3EFF               	addlw	-1
  4339  0DDB  1D03               	skipz
  4340  0DDC  2DD7               	goto	u1395
  4341  0DDD                     l1877:
  4342  0DDD  3001               	movlw	1
  4343  0DDE  02A7               	subwf	___lwdiv@counter,f
  4344  0DDF  1D03               	btfss	3,2
  4345  0DE0  2DE2               	goto	u1401
  4346  0DE1  2DE3               	goto	u1400
  4347  0DE2                     u1401:
  4348  0DE2  2DBE               	goto	l1869
  4349  0DE3                     u1400:
  4350  0DE3                     l1879:
  4351  0DE3  0826               	movf	___lwdiv@quotient+1,w
  4352  0DE4  00A1               	movwf	?___lwdiv+1
  4353  0DE5  0825               	movf	___lwdiv@quotient,w
  4354  0DE6  00A0               	movwf	?___lwdiv
  4355  0DE7                     l713:
  4356  0DE7  0008               	return
  4357  0DE8                     __end_of___lwdiv:
  4358                           
  4359                           	psect	text13
  4360  0CE4                     __ptext13:	
  4361 ;; *************** function _Lcd_Write_String *****************
  4362 ;; Defined at:
  4363 ;;		line 77 in file "LCD.c"
  4364 ;; Parameters:    Size  Location     Type
  4365 ;;  a               1    wreg     PTR unsigned char 
  4366 ;;		 -> STR_4(1), STR_3(5), STR_2(3), STR_1(17), 
  4367 ;; Auto vars:     Size  Location     Type
  4368 ;;  a               1    7[BANK0 ] PTR unsigned char 
  4369 ;;		 -> STR_4(1), STR_3(5), STR_2(3), STR_1(17), 
  4370 ;;  i               2    5[BANK0 ] int 
  4371 ;; Return value:  Size  Location     Type
  4372 ;;                  1    wreg      void 
  4373 ;; Registers used:
  4374 ;;		wreg, fsr0l, fsr0h, status,2, status,0, pclath, cstack
  4375 ;; Tracked objects:
  4376 ;;		On entry : 0/0
  4377 ;;		On exit  : 0/0
  4378 ;;		Unchanged: 0/0
  4379 ;; Data sizes:     COMMON   BANK0   BANK1   BANK3   BANK2
  4380 ;;      Params:         0       0       0       0       0
  4381 ;;      Locals:         0       3       0       0       0
  4382 ;;      Temps:          0       0       0       0       0
  4383 ;;      Totals:         0       3       0       0       0
  4384 ;;Total ram usage:        3 bytes
  4385 ;; Hardware stack levels used:    1
  4386 ;; Hardware stack levels required when called:    4
  4387 ;; This function calls:
  4388 ;;		_Lcd_Write_Char
  4389 ;; This function is called by:
  4390 ;;		_main
  4391 ;; This function uses a non-reentrant model
  4392 ;;
  4393                           
  4394                           
  4395                           ;psect for function _Lcd_Write_String
  4396  0CE4                     _Lcd_Write_String:
  4397                           
  4398                           ;incstack = 0
  4399                           ; Regs used in _Lcd_Write_String: [wreg-fsr0h+status,2+status,0+pclath+cstack]
  4400                           ;Lcd_Write_String@a stored from wreg
  4401  0CE4  1283               	bcf	3,5	;RP0=0, select bank0
  4402  0CE5  1303               	bcf	3,6	;RP1=0, select bank0
  4403  0CE6  00A7               	movwf	Lcd_Write_String@a
  4404  0CE7                     l1957:
  4405                           
  4406                           ;LCD.c: 78:     int i;;LCD.c: 79:     for (i = 0; a[i] != '\0'; i++)
  4407  0CE7  01A5               	clrf	Lcd_Write_String@i
  4408  0CE8  01A6               	clrf	Lcd_Write_String@i+1
  4409  0CE9  2CFF               	goto	l1963
  4410  0CEA                     l1959:
  4411                           
  4412                           ;LCD.c: 80:         Lcd_Write_Char(a[i]);
  4413  0CEA  0825               	movf	Lcd_Write_String@i,w
  4414  0CEB  0727               	addwf	Lcd_Write_String@a,w
  4415  0CEC  0084               	movwf	4
  4416  0CED  120A  158A  2000  120A  158A  	fcall	stringdir
  4417  0CF2  120A  158A  247C  120A  158A  	fcall	_Lcd_Write_Char
  4418  0CF7                     l1961:
  4419  0CF7  3001               	movlw	1
  4420  0CF8  1283               	bcf	3,5	;RP0=0, select bank0
  4421  0CF9  1303               	bcf	3,6	;RP1=0, select bank0
  4422  0CFA  07A5               	addwf	Lcd_Write_String@i,f
  4423  0CFB  1803               	skipnc
  4424  0CFC  0AA6               	incf	Lcd_Write_String@i+1,f
  4425  0CFD  3000               	movlw	0
  4426  0CFE  07A6               	addwf	Lcd_Write_String@i+1,f
  4427  0CFF                     l1963:
  4428  0CFF  0825               	movf	Lcd_Write_String@i,w
  4429  0D00  0727               	addwf	Lcd_Write_String@a,w
  4430  0D01  0084               	movwf	4
  4431  0D02  120A  158A  2000  120A  158A  	fcall	stringdir
  4432  0D07  3A00               	xorlw	0
  4433  0D08  1D03               	skipz
  4434  0D09  2D0B               	goto	u1491
  4435  0D0A  2D0C               	goto	u1490
  4436  0D0B                     u1491:
  4437  0D0B  2CEA               	goto	l1959
  4438  0D0C                     u1490:
  4439  0D0C                     l90:
  4440  0D0C  0008               	return
  4441  0D0D                     __end_of_Lcd_Write_String:
  4442                           
  4443                           	psect	text14
  4444  0C7C                     __ptext14:	
  4445 ;; *************** function _Lcd_Write_Char *****************
  4446 ;; Defined at:
  4447 ;;		line 65 in file "LCD.c"
  4448 ;; Parameters:    Size  Location     Type
  4449 ;;  a               1    wreg     unsigned char 
  4450 ;; Auto vars:     Size  Location     Type
  4451 ;;  a               1    2[BANK0 ] unsigned char 
  4452 ;;  y               1    4[BANK0 ] unsigned char 
  4453 ;;  temp            1    3[BANK0 ] unsigned char 
  4454 ;; Return value:  Size  Location     Type
  4455 ;;                  1    wreg      void 
  4456 ;; Registers used:
  4457 ;;		wreg, status,2, status,0, pclath, cstack
  4458 ;; Tracked objects:
  4459 ;;		On entry : 0/0
  4460 ;;		On exit  : 0/0
  4461 ;;		Unchanged: 0/0
  4462 ;; Data sizes:     COMMON   BANK0   BANK1   BANK3   BANK2
  4463 ;;      Params:         0       0       0       0       0
  4464 ;;      Locals:         0       3       0       0       0
  4465 ;;      Temps:          0       1       0       0       0
  4466 ;;      Totals:         0       4       0       0       0
  4467 ;;Total ram usage:        4 bytes
  4468 ;; Hardware stack levels used:    1
  4469 ;; Hardware stack levels required when called:    3
  4470 ;; This function calls:
  4471 ;;		_Lcd_Port
  4472 ;; This function is called by:
  4473 ;;		_Lcd_Write_String
  4474 ;;		_main
  4475 ;; This function uses a non-reentrant model
  4476 ;;
  4477                           
  4478                           
  4479                           ;psect for function _Lcd_Write_Char
  4480  0C7C                     _Lcd_Write_Char:
  4481                           
  4482                           ;incstack = 0
  4483                           ; Regs used in _Lcd_Write_Char: [wreg+status,2+status,0+pclath+cstack]
  4484                           ;Lcd_Write_Char@a stored from wreg
  4485  0C7C  1283               	bcf	3,5	;RP0=0, select bank0
  4486  0C7D  1303               	bcf	3,6	;RP1=0, select bank0
  4487  0C7E  00A2               	movwf	Lcd_Write_Char@a
  4488  0C7F                     l1831:
  4489                           
  4490                           ;LCD.c: 66:     char temp, y;;LCD.c: 67:     temp = a;
  4491  0C7F  0822               	movf	Lcd_Write_Char@a,w
  4492  0C80  00A1               	movwf	??_Lcd_Write_Char
  4493  0C81  0821               	movf	??_Lcd_Write_Char,w
  4494  0C82  00A3               	movwf	Lcd_Write_Char@temp
  4495                           
  4496                           ;LCD.c: 68:     y = temp;
  4497  0C83  0823               	movf	Lcd_Write_Char@temp,w
  4498  0C84  00A1               	movwf	??_Lcd_Write_Char
  4499  0C85  0821               	movf	??_Lcd_Write_Char,w
  4500  0C86  00A4               	movwf	Lcd_Write_Char@y
  4501  0C87                     l1833:
  4502                           
  4503                           ;LCD.c: 69:     RE0 = 1;
  4504  0C87  1409               	bsf	9,0	;volatile
  4505  0C88                     l1835:
  4506                           
  4507                           ;LCD.c: 70:     Lcd_Port(y);
  4508  0C88  0824               	movf	Lcd_Write_Char@y,w
  4509  0C89  120A  158A  23FD  120A  158A  	fcall	_Lcd_Port
  4510  0C8E                     l1837:
  4511                           
  4512                           ;LCD.c: 71:     RE1 = 1;
  4513  0C8E  1283               	bcf	3,5	;RP0=0, select bank0
  4514  0C8F  1303               	bcf	3,6	;RP1=0, select bank0
  4515  0C90  1489               	bsf	9,1	;volatile
  4516  0C91                     l1839:
  4517                           
  4518                           ;LCD.c: 72:     _delay((unsigned long)((40)*(4000000/4000000.0)));
  4519  0C91  300C               	movlw	12
  4520  0C92  1283               	bcf	3,5	;RP0=0, select bank0
  4521  0C93  1303               	bcf	3,6	;RP1=0, select bank0
  4522  0C94  00A1               	movwf	??_Lcd_Write_Char
  4523  0C95                     u2437:
  4524  0C95  0BA1               	decfsz	??_Lcd_Write_Char,f
  4525  0C96  2C95               	goto	u2437
  4526  0C97  0000               	nop
  4527  0C98                     l1841:
  4528                           
  4529                           ;LCD.c: 73:     RE1 = 0;
  4530  0C98  1283               	bcf	3,5	;RP0=0, select bank0
  4531  0C99  1303               	bcf	3,6	;RP1=0, select bank0
  4532  0C9A  1089               	bcf	9,1	;volatile
  4533  0C9B                     l84:
  4534  0C9B  0008               	return
  4535  0C9C                     __end_of_Lcd_Write_Char:
  4536                           
  4537                           	psect	text15
  4538  0DE8                     __ptext15:	
  4539 ;; *************** function _Lcd_Set_Cursor *****************
  4540 ;; Defined at:
  4541 ;;		line 30 in file "LCD.c"
  4542 ;; Parameters:    Size  Location     Type
  4543 ;;  a               1    wreg     unsigned char 
  4544 ;;  b               1    4[BANK0 ] unsigned char 
  4545 ;; Auto vars:     Size  Location     Type
  4546 ;;  a               1    7[BANK0 ] unsigned char 
  4547 ;;  temp            1   10[BANK0 ] unsigned char 
  4548 ;;  y               1    9[BANK0 ] unsigned char 
  4549 ;;  z               1    8[BANK0 ] unsigned char 
  4550 ;; Return value:  Size  Location     Type
  4551 ;;                  1    wreg      void 
  4552 ;; Registers used:
  4553 ;;		wreg, status,2, status,0, pclath, cstack
  4554 ;; Tracked objects:
  4555 ;;		On entry : 0/0
  4556 ;;		On exit  : 0/0
  4557 ;;		Unchanged: 0/0
  4558 ;; Data sizes:     COMMON   BANK0   BANK1   BANK3   BANK2
  4559 ;;      Params:         0       1       0       0       0
  4560 ;;      Locals:         0       4       0       0       0
  4561 ;;      Temps:          0       2       0       0       0
  4562 ;;      Totals:         0       7       0       0       0
  4563 ;;Total ram usage:        7 bytes
  4564 ;; Hardware stack levels used:    1
  4565 ;; Hardware stack levels required when called:    4
  4566 ;; This function calls:
  4567 ;;		_Lcd_Cmd
  4568 ;; This function is called by:
  4569 ;;		_main
  4570 ;; This function uses a non-reentrant model
  4571 ;;
  4572                           
  4573                           
  4574                           ;psect for function _Lcd_Set_Cursor
  4575  0DE8                     _Lcd_Set_Cursor:
  4576                           
  4577                           ;incstack = 0
  4578                           ; Regs used in _Lcd_Set_Cursor: [wreg+status,2+status,0+pclath+cstack]
  4579                           ;Lcd_Set_Cursor@a stored from wreg
  4580  0DE8  1283               	bcf	3,5	;RP0=0, select bank0
  4581  0DE9  1303               	bcf	3,6	;RP1=0, select bank0
  4582  0DEA  00A7               	movwf	Lcd_Set_Cursor@a
  4583  0DEB                     l1927:
  4584                           
  4585                           ;LCD.c: 31:     char temp, z, y;;LCD.c: 32:     if (a == 1) {
  4586  0DEB  0327               	decf	Lcd_Set_Cursor@a,w
  4587  0DEC  1D03               	btfss	3,2
  4588  0DED  2DEF               	goto	u1451
  4589  0DEE  2DF0               	goto	u1450
  4590  0DEF                     u1451:
  4591  0DEF  2E15               	goto	l1937
  4592  0DF0                     u1450:
  4593  0DF0                     l1929:
  4594                           
  4595                           ;LCD.c: 33:         temp = 0x80 + b - 1;
  4596  0DF0  0824               	movf	Lcd_Set_Cursor@b,w
  4597  0DF1  3E7F               	addlw	127
  4598  0DF2  00A5               	movwf	??_Lcd_Set_Cursor
  4599  0DF3  0825               	movf	??_Lcd_Set_Cursor,w
  4600  0DF4  00AA               	movwf	Lcd_Set_Cursor@temp
  4601                           
  4602                           ;LCD.c: 34:         z = temp >> 4;
  4603  0DF5  082A               	movf	Lcd_Set_Cursor@temp,w
  4604  0DF6  00A5               	movwf	??_Lcd_Set_Cursor
  4605  0DF7  3004               	movlw	4
  4606  0DF8                     u1465:
  4607  0DF8  1003               	clrc
  4608  0DF9  0CA5               	rrf	??_Lcd_Set_Cursor,f
  4609  0DFA  3EFF               	addlw	-1
  4610  0DFB  1D03               	skipz
  4611  0DFC  2DF8               	goto	u1465
  4612  0DFD  0825               	movf	??_Lcd_Set_Cursor,w
  4613  0DFE  00A6               	movwf	??_Lcd_Set_Cursor+1
  4614  0DFF  0826               	movf	??_Lcd_Set_Cursor+1,w
  4615  0E00  00A8               	movwf	Lcd_Set_Cursor@z
  4616  0E01                     l1931:
  4617                           
  4618                           ;LCD.c: 35:         y = temp & 0x0F;
  4619  0E01  082A               	movf	Lcd_Set_Cursor@temp,w
  4620  0E02  390F               	andlw	15
  4621  0E03  00A5               	movwf	??_Lcd_Set_Cursor
  4622  0E04  0825               	movf	??_Lcd_Set_Cursor,w
  4623  0E05  00A9               	movwf	Lcd_Set_Cursor@y
  4624  0E06                     l1933:
  4625                           
  4626                           ;LCD.c: 36:         Lcd_Cmd(z);
  4627  0E06  0828               	movf	Lcd_Set_Cursor@z,w
  4628  0E07  120A  158A  2460  120A  158A  	fcall	_Lcd_Cmd
  4629  0E0C                     l1935:
  4630                           
  4631                           ;LCD.c: 37:         Lcd_Cmd(y);
  4632  0E0C  1283               	bcf	3,5	;RP0=0, select bank0
  4633  0E0D  1303               	bcf	3,6	;RP1=0, select bank0
  4634  0E0E  0829               	movf	Lcd_Set_Cursor@y,w
  4635  0E0F  120A  158A  2460  120A  158A  	fcall	_Lcd_Cmd
  4636                           
  4637                           ;LCD.c: 38:     } else if (a == 2) {
  4638  0E14  2E3F               	goto	l78
  4639  0E15                     l1937:
  4640  0E15  3002               	movlw	2
  4641  0E16  0627               	xorwf	Lcd_Set_Cursor@a,w
  4642  0E17  1D03               	btfss	3,2
  4643  0E18  2E1A               	goto	u1471
  4644  0E19  2E1B               	goto	u1470
  4645  0E1A                     u1471:
  4646  0E1A  2E3F               	goto	l78
  4647  0E1B                     u1470:
  4648  0E1B                     l1939:
  4649                           
  4650                           ;LCD.c: 39:         temp = 0xC0 + b - 1;
  4651  0E1B  0824               	movf	Lcd_Set_Cursor@b,w
  4652  0E1C  3EBF               	addlw	191
  4653  0E1D  00A5               	movwf	??_Lcd_Set_Cursor
  4654  0E1E  0825               	movf	??_Lcd_Set_Cursor,w
  4655  0E1F  00AA               	movwf	Lcd_Set_Cursor@temp
  4656                           
  4657                           ;LCD.c: 40:         z = temp >> 4;
  4658  0E20  082A               	movf	Lcd_Set_Cursor@temp,w
  4659  0E21  00A5               	movwf	??_Lcd_Set_Cursor
  4660  0E22  3004               	movlw	4
  4661  0E23                     u1485:
  4662  0E23  1003               	clrc
  4663  0E24  0CA5               	rrf	??_Lcd_Set_Cursor,f
  4664  0E25  3EFF               	addlw	-1
  4665  0E26  1D03               	skipz
  4666  0E27  2E23               	goto	u1485
  4667  0E28  0825               	movf	??_Lcd_Set_Cursor,w
  4668  0E29  00A6               	movwf	??_Lcd_Set_Cursor+1
  4669  0E2A  0826               	movf	??_Lcd_Set_Cursor+1,w
  4670  0E2B  00A8               	movwf	Lcd_Set_Cursor@z
  4671  0E2C                     l1941:
  4672                           
  4673                           ;LCD.c: 41:         y = temp & 0xF0;
  4674  0E2C  082A               	movf	Lcd_Set_Cursor@temp,w
  4675  0E2D  39F0               	andlw	240
  4676  0E2E  00A5               	movwf	??_Lcd_Set_Cursor
  4677  0E2F  0825               	movf	??_Lcd_Set_Cursor,w
  4678  0E30  00A9               	movwf	Lcd_Set_Cursor@y
  4679  0E31                     l1943:
  4680                           
  4681                           ;LCD.c: 42:         Lcd_Cmd(z);
  4682  0E31  0828               	movf	Lcd_Set_Cursor@z,w
  4683  0E32  120A  158A  2460  120A  158A  	fcall	_Lcd_Cmd
  4684  0E37                     l1945:
  4685                           
  4686                           ;LCD.c: 43:         Lcd_Cmd(y);
  4687  0E37  1283               	bcf	3,5	;RP0=0, select bank0
  4688  0E38  1303               	bcf	3,6	;RP1=0, select bank0
  4689  0E39  0829               	movf	Lcd_Set_Cursor@y,w
  4690  0E3A  120A  158A  2460  120A  158A  	fcall	_Lcd_Cmd
  4691  0E3F                     l78:
  4692  0E3F  0008               	return
  4693  0E40                     __end_of_Lcd_Set_Cursor:
  4694                           
  4695                           	psect	text16
  4696  07A9                     __ptext16:	
  4697 ;; *************** function _Lcd_Init *****************
  4698 ;; Defined at:
  4699 ;;		line 47 in file "LCD.c"
  4700 ;; Parameters:    Size  Location     Type
  4701 ;;		None
  4702 ;; Auto vars:     Size  Location     Type
  4703 ;;		None
  4704 ;; Return value:  Size  Location     Type
  4705 ;;                  1    wreg      void 
  4706 ;; Registers used:
  4707 ;;		wreg, status,2, status,0, pclath, cstack
  4708 ;; Tracked objects:
  4709 ;;		On entry : 0/0
  4710 ;;		On exit  : 0/0
  4711 ;;		Unchanged: 0/0
  4712 ;; Data sizes:     COMMON   BANK0   BANK1   BANK3   BANK2
  4713 ;;      Params:         0       0       0       0       0
  4714 ;;      Locals:         0       0       0       0       0
  4715 ;;      Temps:          0       2       0       0       0
  4716 ;;      Totals:         0       2       0       0       0
  4717 ;;Total ram usage:        2 bytes
  4718 ;; Hardware stack levels used:    1
  4719 ;; Hardware stack levels required when called:    4
  4720 ;; This function calls:
  4721 ;;		_Lcd_Cmd
  4722 ;;		_Lcd_Port
  4723 ;; This function is called by:
  4724 ;;		_main
  4725 ;; This function uses a non-reentrant model
  4726 ;;
  4727                           
  4728                           
  4729                           ;psect for function _Lcd_Init
  4730  07A9                     _Lcd_Init:
  4731  07A9                     l1947:	
  4732                           ;incstack = 0
  4733                           ; Regs used in _Lcd_Init: [wreg+status,2+status,0+pclath+cstack]
  4734                           
  4735                           
  4736                           ;LCD.c: 48:     Lcd_Port(0x00);
  4737  07A9  3000               	movlw	0
  4738  07AA  120A  158A  23FD  120A  118A  	fcall	_Lcd_Port
  4739  07AF                     l1949:
  4740                           
  4741                           ;LCD.c: 49:     _delay((unsigned long)((20)*(4000000/4000.0)));
  4742  07AF  301A               	movlw	26
  4743  07B0  1283               	bcf	3,5	;RP0=0, select bank0
  4744  07B1  1303               	bcf	3,6	;RP1=0, select bank0
  4745  07B2  00A5               	movwf	??_Lcd_Init+1
  4746  07B3  30F7               	movlw	247
  4747  07B4  00A4               	movwf	??_Lcd_Init
  4748  07B5                     u2447:
  4749  07B5  0BA4               	decfsz	??_Lcd_Init,f
  4750  07B6  2FB5               	goto	u2447
  4751  07B7  0BA5               	decfsz	??_Lcd_Init+1,f
  4752  07B8  2FB5               	goto	u2447
  4753  07B9  2FBA               	nop2
  4754  07BA                     l1951:
  4755                           
  4756                           ;LCD.c: 50:     Lcd_Cmd(0x30);
  4757  07BA  3030               	movlw	48
  4758  07BB  120A  158A  2460  120A  118A  	fcall	_Lcd_Cmd
  4759                           
  4760                           ;LCD.c: 51:     _delay((unsigned long)((5)*(4000000/4000.0)));
  4761  07C0  3007               	movlw	7
  4762  07C1  1283               	bcf	3,5	;RP0=0, select bank0
  4763  07C2  1303               	bcf	3,6	;RP1=0, select bank0
  4764  07C3  00A5               	movwf	??_Lcd_Init+1
  4765  07C4  307C               	movlw	124
  4766  07C5  00A4               	movwf	??_Lcd_Init
  4767  07C6                     u2457:
  4768  07C6  0BA4               	decfsz	??_Lcd_Init,f
  4769  07C7  2FC6               	goto	u2457
  4770  07C8  0BA5               	decfsz	??_Lcd_Init+1,f
  4771  07C9  2FC6               	goto	u2457
  4772  07CA  0000               	nop
  4773  07CB                     l1953:
  4774                           
  4775                           ;LCD.c: 52:     Lcd_Cmd(0x30);
  4776  07CB  3030               	movlw	48
  4777  07CC  120A  158A  2460  120A  118A  	fcall	_Lcd_Cmd
  4778  07D1                     l1955:
  4779                           
  4780                           ;LCD.c: 53:     _delay((unsigned long)((200)*(4000000/4000000.0)));
  4781  07D1  3041               	movlw	65
  4782  07D2  1283               	bcf	3,5	;RP0=0, select bank0
  4783  07D3  1303               	bcf	3,6	;RP1=0, select bank0
  4784  07D4  00A4               	movwf	??_Lcd_Init
  4785  07D5                     u2467:
  4786  07D5  0BA4               	decfsz	??_Lcd_Init,f
  4787  07D6  2FD5               	goto	u2467
  4788  07D7  2FD8               	nop2
  4789                           
  4790                           ;LCD.c: 54:     Lcd_Cmd(0x30);
  4791  07D8  3030               	movlw	48
  4792  07D9  120A  158A  2460  120A  118A  	fcall	_Lcd_Cmd
  4793                           
  4794                           ;LCD.c: 56:     Lcd_Cmd(0x3C);
  4795  07DE  303C               	movlw	60
  4796  07DF  120A  158A  2460  120A  118A  	fcall	_Lcd_Cmd
  4797                           
  4798                           ;LCD.c: 58:     Lcd_Cmd(0x08);
  4799  07E4  3008               	movlw	8
  4800  07E5  120A  158A  2460  120A  118A  	fcall	_Lcd_Cmd
  4801                           
  4802                           ;LCD.c: 60:     Lcd_Cmd(0x01);
  4803  07EA  3001               	movlw	1
  4804  07EB  120A  158A  2460  120A  118A  	fcall	_Lcd_Cmd
  4805                           
  4806                           ;LCD.c: 62:     Lcd_Cmd(0x06);
  4807  07F0  3006               	movlw	6
  4808  07F1  120A  158A  2460  120A  118A  	fcall	_Lcd_Cmd
  4809  07F6                     l81:
  4810  07F6  0008               	return
  4811  07F7                     __end_of_Lcd_Init:
  4812                           
  4813                           	psect	text17
  4814  0C2B                     __ptext17:	
  4815 ;; *************** function _Lcd_Clear *****************
  4816 ;; Defined at:
  4817 ;;		line 25 in file "LCD.c"
  4818 ;; Parameters:    Size  Location     Type
  4819 ;;		None
  4820 ;; Auto vars:     Size  Location     Type
  4821 ;;		None
  4822 ;; Return value:  Size  Location     Type
  4823 ;;                  1    wreg      void 
  4824 ;; Registers used:
  4825 ;;		wreg, status,2, status,0, pclath, cstack
  4826 ;; Tracked objects:
  4827 ;;		On entry : 0/0
  4828 ;;		On exit  : 0/0
  4829 ;;		Unchanged: 0/0
  4830 ;; Data sizes:     COMMON   BANK0   BANK1   BANK3   BANK2
  4831 ;;      Params:         0       0       0       0       0
  4832 ;;      Locals:         0       0       0       0       0
  4833 ;;      Temps:          0       0       0       0       0
  4834 ;;      Totals:         0       0       0       0       0
  4835 ;;Total ram usage:        0 bytes
  4836 ;; Hardware stack levels used:    1
  4837 ;; Hardware stack levels required when called:    4
  4838 ;; This function calls:
  4839 ;;		_Lcd_Cmd
  4840 ;; This function is called by:
  4841 ;;		_main
  4842 ;; This function uses a non-reentrant model
  4843 ;;
  4844                           
  4845                           
  4846                           ;psect for function _Lcd_Clear
  4847  0C2B                     _Lcd_Clear:
  4848  0C2B                     l1925:	
  4849                           ;incstack = 0
  4850                           ; Regs used in _Lcd_Clear: [wreg+status,2+status,0+pclath+cstack]
  4851                           
  4852                           
  4853                           ;LCD.c: 26:     Lcd_Cmd(0);
  4854  0C2B  3000               	movlw	0
  4855  0C2C  120A  158A  2460  120A  158A  	fcall	_Lcd_Cmd
  4856                           
  4857                           ;LCD.c: 27:     Lcd_Cmd(1);
  4858  0C31  3001               	movlw	1
  4859  0C32  120A  158A  2460  120A  158A  	fcall	_Lcd_Cmd
  4860  0C37                     l72:
  4861  0C37  0008               	return
  4862  0C38                     __end_of_Lcd_Clear:
  4863                           
  4864                           	psect	text18
  4865  0C60                     __ptext18:	
  4866 ;; *************** function _Lcd_Cmd *****************
  4867 ;; Defined at:
  4868 ;;		line 17 in file "LCD.c"
  4869 ;; Parameters:    Size  Location     Type
  4870 ;;  a               1    wreg     unsigned char 
  4871 ;; Auto vars:     Size  Location     Type
  4872 ;;  a               1    3[BANK0 ] unsigned char 
  4873 ;; Return value:  Size  Location     Type
  4874 ;;                  1    wreg      void 
  4875 ;; Registers used:
  4876 ;;		wreg, status,2, status,0, pclath, cstack
  4877 ;; Tracked objects:
  4878 ;;		On entry : 0/0
  4879 ;;		On exit  : 0/0
  4880 ;;		Unchanged: 0/0
  4881 ;; Data sizes:     COMMON   BANK0   BANK1   BANK3   BANK2
  4882 ;;      Params:         0       0       0       0       0
  4883 ;;      Locals:         0       1       0       0       0
  4884 ;;      Temps:          0       2       0       0       0
  4885 ;;      Totals:         0       3       0       0       0
  4886 ;;Total ram usage:        3 bytes
  4887 ;; Hardware stack levels used:    1
  4888 ;; Hardware stack levels required when called:    3
  4889 ;; This function calls:
  4890 ;;		_Lcd_Port
  4891 ;; This function is called by:
  4892 ;;		_Lcd_Clear
  4893 ;;		_Lcd_Set_Cursor
  4894 ;;		_Lcd_Init
  4895 ;;		_Lcd_Shift_Right
  4896 ;;		_Lcd_Shift_Left
  4897 ;; This function uses a non-reentrant model
  4898 ;;
  4899                           
  4900                           
  4901                           ;psect for function _Lcd_Cmd
  4902  0C60                     _Lcd_Cmd:
  4903                           
  4904                           ;incstack = 0
  4905                           ; Regs used in _Lcd_Cmd: [wreg+status,2+status,0+pclath+cstack]
  4906                           ;Lcd_Cmd@a stored from wreg
  4907  0C60  1283               	bcf	3,5	;RP0=0, select bank0
  4908  0C61  1303               	bcf	3,6	;RP1=0, select bank0
  4909  0C62  00A3               	movwf	Lcd_Cmd@a
  4910  0C63                     l1821:
  4911                           
  4912                           ;LCD.c: 18:     RE0 = 0;
  4913  0C63  1009               	bcf	9,0	;volatile
  4914  0C64                     l1823:
  4915                           
  4916                           ;LCD.c: 19:     Lcd_Port(a);
  4917  0C64  0823               	movf	Lcd_Cmd@a,w
  4918  0C65  120A  158A  23FD  120A  158A  	fcall	_Lcd_Port
  4919  0C6A                     l1825:
  4920                           
  4921                           ;LCD.c: 20:     RE1 = 1;
  4922  0C6A  1283               	bcf	3,5	;RP0=0, select bank0
  4923  0C6B  1303               	bcf	3,6	;RP1=0, select bank0
  4924  0C6C  1489               	bsf	9,1	;volatile
  4925  0C6D                     l1827:
  4926                           
  4927                           ;LCD.c: 21:     _delay((unsigned long)((4)*(4000000/4000.0)));
  4928  0C6D  3006               	movlw	6
  4929  0C6E  1283               	bcf	3,5	;RP0=0, select bank0
  4930  0C6F  1303               	bcf	3,6	;RP1=0, select bank0
  4931  0C70  00A2               	movwf	??_Lcd_Cmd+1
  4932  0C71  302F               	movlw	47
  4933  0C72  00A1               	movwf	??_Lcd_Cmd
  4934  0C73                     u2477:
  4935  0C73  0BA1               	decfsz	??_Lcd_Cmd,f
  4936  0C74  2C73               	goto	u2477
  4937  0C75  0BA2               	decfsz	??_Lcd_Cmd+1,f
  4938  0C76  2C73               	goto	u2477
  4939  0C77  2C78               	nop2
  4940  0C78                     l1829:
  4941                           
  4942                           ;LCD.c: 22:     RE1 = 0;
  4943  0C78  1283               	bcf	3,5	;RP0=0, select bank0
  4944  0C79  1303               	bcf	3,6	;RP1=0, select bank0
  4945  0C7A  1089               	bcf	9,1	;volatile
  4946  0C7B                     l69:
  4947  0C7B  0008               	return
  4948  0C7C                     __end_of_Lcd_Cmd:
  4949                           
  4950                           	psect	text19
  4951  0BFD                     __ptext19:	
  4952 ;; *************** function _Lcd_Port *****************
  4953 ;; Defined at:
  4954 ;;		line 12 in file "LCD.c"
  4955 ;; Parameters:    Size  Location     Type
  4956 ;;  a               1    wreg     unsigned char 
  4957 ;; Auto vars:     Size  Location     Type
  4958 ;;  a               1    0[BANK0 ] unsigned char 
  4959 ;; Return value:  Size  Location     Type
  4960 ;;                  1    wreg      void 
  4961 ;; Registers used:
  4962 ;;		wreg
  4963 ;; Tracked objects:
  4964 ;;		On entry : 0/0
  4965 ;;		On exit  : 0/0
  4966 ;;		Unchanged: 0/0
  4967 ;; Data sizes:     COMMON   BANK0   BANK1   BANK3   BANK2
  4968 ;;      Params:         0       0       0       0       0
  4969 ;;      Locals:         0       1       0       0       0
  4970 ;;      Temps:          0       0       0       0       0
  4971 ;;      Totals:         0       1       0       0       0
  4972 ;;Total ram usage:        1 bytes
  4973 ;; Hardware stack levels used:    1
  4974 ;; Hardware stack levels required when called:    2
  4975 ;; This function calls:
  4976 ;;		Nothing
  4977 ;; This function is called by:
  4978 ;;		_Lcd_Cmd
  4979 ;;		_Lcd_Init
  4980 ;;		_Lcd_Write_Char
  4981 ;; This function uses a non-reentrant model
  4982 ;;
  4983                           
  4984                           
  4985                           ;psect for function _Lcd_Port
  4986  0BFD                     _Lcd_Port:
  4987                           
  4988                           ;incstack = 0
  4989                           ; Regs used in _Lcd_Port: [wreg]
  4990                           ;Lcd_Port@a stored from wreg
  4991  0BFD  1283               	bcf	3,5	;RP0=0, select bank0
  4992  0BFE  1303               	bcf	3,6	;RP1=0, select bank0
  4993  0BFF  00A0               	movwf	Lcd_Port@a
  4994  0C00                     l1779:
  4995                           
  4996                           ;LCD.c: 13:     PORTD = a;
  4997  0C00  0820               	movf	Lcd_Port@a,w
  4998  0C01  0088               	movwf	8	;volatile
  4999  0C02                     l66:
  5000  0C02  0008               	return
  5001  0C03                     __end_of_Lcd_Port:
  5002                           
  5003                           	psect	text20
  5004  0C14                     __ptext20:	
  5005 ;; *************** function _I2C_Master_Write *****************
  5006 ;; Defined at:
  5007 ;;		line 65 in file "I2C.c"
  5008 ;; Parameters:    Size  Location     Type
  5009 ;;  d               2    0[BANK0 ] unsigned int 
  5010 ;; Auto vars:     Size  Location     Type
  5011 ;;		None
  5012 ;; Return value:  Size  Location     Type
  5013 ;;                  1    wreg      void 
  5014 ;; Registers used:
  5015 ;;		wreg, status,2, status,0, pclath, cstack
  5016 ;; Tracked objects:
  5017 ;;		On entry : 0/0
  5018 ;;		On exit  : 0/0
  5019 ;;		Unchanged: 0/0
  5020 ;; Data sizes:     COMMON   BANK0   BANK1   BANK3   BANK2
  5021 ;;      Params:         0       2       0       0       0
  5022 ;;      Locals:         0       0       0       0       0
  5023 ;;      Temps:          0       0       0       0       0
  5024 ;;      Totals:         0       2       0       0       0
  5025 ;;Total ram usage:        2 bytes
  5026 ;; Hardware stack levels used:    1
  5027 ;; Hardware stack levels required when called:    3
  5028 ;; This function calls:
  5029 ;;		_I2C_Master_Wait
  5030 ;; This function is called by:
  5031 ;;		_main
  5032 ;; This function uses a non-reentrant model
  5033 ;;
  5034                           
  5035                           
  5036                           ;psect for function _I2C_Master_Write
  5037  0C14                     _I2C_Master_Write:
  5038  0C14                     l1905:	
  5039                           ;incstack = 0
  5040                           ; Regs used in _I2C_Master_Write: [wreg+status,2+status,0+pclath+cstack]
  5041                           
  5042                           
  5043                           ;I2C.c: 65: void I2C_Master_Write(unsigned d);I2C.c: 66: {;I2C.c: 67:     I2C_Master_Wai
      +                          t();
  5044  0C14  120A  158A  241E  120A  158A  	fcall	_I2C_Master_Wait
  5045  0C19                     l1907:
  5046                           
  5047                           ;I2C.c: 68:     SSPBUF = d;
  5048  0C19  1283               	bcf	3,5	;RP0=0, select bank0
  5049  0C1A  1303               	bcf	3,6	;RP1=0, select bank0
  5050  0C1B  0820               	movf	I2C_Master_Write@d,w
  5051  0C1C  0093               	movwf	19	;volatile
  5052  0C1D                     l47:
  5053  0C1D  0008               	return
  5054  0C1E                     __end_of_I2C_Master_Write:
  5055                           
  5056                           	psect	text21
  5057  07F7                     __ptext21:	
  5058 ;; *************** function _I2C_Master_Stop *****************
  5059 ;; Defined at:
  5060 ;;		line 55 in file "I2C.c"
  5061 ;; Parameters:    Size  Location     Type
  5062 ;;		None
  5063 ;; Auto vars:     Size  Location     Type
  5064 ;;		None
  5065 ;; Return value:  Size  Location     Type
  5066 ;;                  1    wreg      void 
  5067 ;; Registers used:
  5068 ;;		wreg, status,2, status,0, pclath, cstack
  5069 ;; Tracked objects:
  5070 ;;		On entry : 0/0
  5071 ;;		On exit  : 0/0
  5072 ;;		Unchanged: 0/0
  5073 ;; Data sizes:     COMMON   BANK0   BANK1   BANK3   BANK2
  5074 ;;      Params:         0       0       0       0       0
  5075 ;;      Locals:         0       0       0       0       0
  5076 ;;      Temps:          0       0       0       0       0
  5077 ;;      Totals:         0       0       0       0       0
  5078 ;;Total ram usage:        0 bytes
  5079 ;; Hardware stack levels used:    1
  5080 ;; Hardware stack levels required when called:    3
  5081 ;; This function calls:
  5082 ;;		_I2C_Master_Wait
  5083 ;; This function is called by:
  5084 ;;		_main
  5085 ;; This function uses a non-reentrant model
  5086 ;;
  5087                           
  5088                           
  5089                           ;psect for function _I2C_Master_Stop
  5090  07F7                     _I2C_Master_Stop:
  5091  07F7                     l1901:	
  5092                           ;incstack = 0
  5093                           ; Regs used in _I2C_Master_Stop: [wreg+status,2+status,0+pclath+cstack]
  5094                           
  5095                           
  5096                           ;I2C.c: 57:     I2C_Master_Wait();
  5097  07F7  120A  158A  241E  120A  118A  	fcall	_I2C_Master_Wait
  5098  07FC                     l1903:
  5099                           
  5100                           ;I2C.c: 58:     SSPCON2bits.PEN = 1;
  5101  07FC  1683               	bsf	3,5	;RP0=1, select bank1
  5102  07FD  1303               	bcf	3,6	;RP1=0, select bank1
  5103  07FE  1511               	bsf	17,2	;volatile
  5104  07FF                     l44:
  5105  07FF  0008               	return
  5106  0800                     __end_of_I2C_Master_Stop:
  5107                           
  5108                           	psect	text22
  5109  0C0B                     __ptext22:	
  5110 ;; *************** function _I2C_Master_Start *****************
  5111 ;; Defined at:
  5112 ;;		line 39 in file "I2C.c"
  5113 ;; Parameters:    Size  Location     Type
  5114 ;;		None
  5115 ;; Auto vars:     Size  Location     Type
  5116 ;;		None
  5117 ;; Return value:  Size  Location     Type
  5118 ;;                  1    wreg      void 
  5119 ;; Registers used:
  5120 ;;		wreg, status,2, status,0, pclath, cstack
  5121 ;; Tracked objects:
  5122 ;;		On entry : 0/0
  5123 ;;		On exit  : 0/0
  5124 ;;		Unchanged: 0/0
  5125 ;; Data sizes:     COMMON   BANK0   BANK1   BANK3   BANK2
  5126 ;;      Params:         0       0       0       0       0
  5127 ;;      Locals:         0       0       0       0       0
  5128 ;;      Temps:          0       0       0       0       0
  5129 ;;      Totals:         0       0       0       0       0
  5130 ;;Total ram usage:        0 bytes
  5131 ;; Hardware stack levels used:    1
  5132 ;; Hardware stack levels required when called:    3
  5133 ;; This function calls:
  5134 ;;		_I2C_Master_Wait
  5135 ;; This function is called by:
  5136 ;;		_main
  5137 ;; This function uses a non-reentrant model
  5138 ;;
  5139                           
  5140                           
  5141                           ;psect for function _I2C_Master_Start
  5142  0C0B                     _I2C_Master_Start:
  5143  0C0B                     l1897:	
  5144                           ;incstack = 0
  5145                           ; Regs used in _I2C_Master_Start: [wreg+status,2+status,0+pclath+cstack]
  5146                           
  5147                           
  5148                           ;I2C.c: 41:     I2C_Master_Wait();
  5149  0C0B  120A  158A  241E  120A  158A  	fcall	_I2C_Master_Wait
  5150  0C10                     l1899:
  5151                           
  5152                           ;I2C.c: 42:     SSPCON2bits.SEN = 1;
  5153  0C10  1683               	bsf	3,5	;RP0=1, select bank1
  5154  0C11  1303               	bcf	3,6	;RP1=0, select bank1
  5155  0C12  1411               	bsf	17,0	;volatile
  5156  0C13                     l38:
  5157  0C13  0008               	return
  5158  0C14                     __end_of_I2C_Master_Start:
  5159                           
  5160                           	psect	text23
  5161  0D36                     __ptext23:	
  5162 ;; *************** function _I2C_Master_Read *****************
  5163 ;; Defined at:
  5164 ;;		line 74 in file "I2C.c"
  5165 ;; Parameters:    Size  Location     Type
  5166 ;;  a               2    0[BANK0 ] unsigned short 
  5167 ;; Auto vars:     Size  Location     Type
  5168 ;;  temp            2    4[BANK0 ] unsigned short 
  5169 ;; Return value:  Size  Location     Type
  5170 ;;                  2    0[BANK0 ] unsigned short 
  5171 ;; Registers used:
  5172 ;;		wreg, status,2, status,0, pclath, cstack
  5173 ;; Tracked objects:
  5174 ;;		On entry : 0/0
  5175 ;;		On exit  : 0/0
  5176 ;;		Unchanged: 0/0
  5177 ;; Data sizes:     COMMON   BANK0   BANK1   BANK3   BANK2
  5178 ;;      Params:         0       2       0       0       0
  5179 ;;      Locals:         0       2       0       0       0
  5180 ;;      Temps:          0       2       0       0       0
  5181 ;;      Totals:         0       6       0       0       0
  5182 ;;Total ram usage:        6 bytes
  5183 ;; Hardware stack levels used:    1
  5184 ;; Hardware stack levels required when called:    3
  5185 ;; This function calls:
  5186 ;;		_I2C_Master_Wait
  5187 ;; This function is called by:
  5188 ;;		_main
  5189 ;; This function uses a non-reentrant model
  5190 ;;
  5191                           
  5192                           
  5193                           ;psect for function _I2C_Master_Read
  5194  0D36                     _I2C_Master_Read:
  5195  0D36                     l1909:	
  5196                           ;incstack = 0
  5197                           ; Regs used in _I2C_Master_Read: [wreg+status,2+status,0+pclath+cstack]
  5198                           
  5199                           
  5200                           ;I2C.c: 74: unsigned short I2C_Master_Read(unsigned short a);I2C.c: 75: {;I2C.c: 76:    
      +                           unsigned short temp;;I2C.c: 77:     I2C_Master_Wait();
  5201  0D36  120A  158A  241E  120A  158A  	fcall	_I2C_Master_Wait
  5202  0D3B                     l1911:
  5203                           
  5204                           ;I2C.c: 78:     SSPCON2bits.RCEN = 1;
  5205  0D3B  1683               	bsf	3,5	;RP0=1, select bank1
  5206  0D3C  1303               	bcf	3,6	;RP1=0, select bank1
  5207  0D3D  1591               	bsf	17,3	;volatile
  5208                           
  5209                           ;I2C.c: 79:     I2C_Master_Wait();
  5210  0D3E  120A  158A  241E  120A  158A  	fcall	_I2C_Master_Wait
  5211  0D43                     l1913:
  5212                           
  5213                           ;I2C.c: 80:     temp = SSPBUF;
  5214  0D43  1283               	bcf	3,5	;RP0=0, select bank0
  5215  0D44  1303               	bcf	3,6	;RP1=0, select bank0
  5216  0D45  0813               	movf	19,w	;volatile
  5217  0D46  00A2               	movwf	??_I2C_Master_Read
  5218  0D47  01A3               	clrf	??_I2C_Master_Read+1
  5219  0D48  0822               	movf	??_I2C_Master_Read,w
  5220  0D49  00A4               	movwf	I2C_Master_Read@temp
  5221  0D4A  0823               	movf	??_I2C_Master_Read+1,w
  5222  0D4B  00A5               	movwf	I2C_Master_Read@temp+1
  5223  0D4C                     l1915:
  5224                           
  5225                           ;I2C.c: 81:     I2C_Master_Wait();
  5226  0D4C  120A  158A  241E  120A  158A  	fcall	_I2C_Master_Wait
  5227  0D51                     l1917:
  5228                           
  5229                           ;I2C.c: 82:     if(a == 1){
  5230  0D51  1283               	bcf	3,5	;RP0=0, select bank0
  5231  0D52  1303               	bcf	3,6	;RP1=0, select bank0
  5232  0D53  0320               	decf	I2C_Master_Read@a,w
  5233  0D54  0421               	iorwf	I2C_Master_Read@a+1,w
  5234  0D55  1D03               	btfss	3,2
  5235  0D56  2D58               	goto	u1441
  5236  0D57  2D59               	goto	u1440
  5237  0D58                     u1441:
  5238  0D58  2D5D               	goto	l50
  5239  0D59                     u1440:
  5240  0D59                     l1919:
  5241                           
  5242                           ;I2C.c: 83:         SSPCON2bits.ACKDT = 0;
  5243  0D59  1683               	bsf	3,5	;RP0=1, select bank1
  5244  0D5A  1303               	bcf	3,6	;RP1=0, select bank1
  5245  0D5B  1291               	bcf	17,5	;volatile
  5246                           
  5247                           ;I2C.c: 84:     }else{
  5248  0D5C  2D60               	goto	l51
  5249  0D5D                     l50:
  5250                           
  5251                           ;I2C.c: 85:         SSPCON2bits.ACKDT = 1;
  5252  0D5D  1683               	bsf	3,5	;RP0=1, select bank1
  5253  0D5E  1303               	bcf	3,6	;RP1=0, select bank1
  5254  0D5F  1691               	bsf	17,5	;volatile
  5255  0D60                     l51:	
  5256                           ;I2C.c: 86:     }
  5257                           
  5258                           
  5259                           ;I2C.c: 87:     SSPCON2bits.ACKEN = 1;
  5260  0D60  1611               	bsf	17,4	;volatile
  5261  0D61                     l1921:
  5262                           
  5263                           ;I2C.c: 88:     return temp;
  5264  0D61  1283               	bcf	3,5	;RP0=0, select bank0
  5265  0D62  1303               	bcf	3,6	;RP1=0, select bank0
  5266  0D63  0825               	movf	I2C_Master_Read@temp+1,w
  5267  0D64  00A1               	movwf	?_I2C_Master_Read+1
  5268  0D65  0824               	movf	I2C_Master_Read@temp,w
  5269  0D66  00A0               	movwf	?_I2C_Master_Read
  5270  0D67                     l52:
  5271  0D67  0008               	return
  5272  0D68                     __end_of_I2C_Master_Read:
  5273                           
  5274                           	psect	text24
  5275  0C1E                     __ptext24:	
  5276 ;; *************** function _I2C_Master_Wait *****************
  5277 ;; Defined at:
  5278 ;;		line 32 in file "I2C.c"
  5279 ;; Parameters:    Size  Location     Type
  5280 ;;		None
  5281 ;; Auto vars:     Size  Location     Type
  5282 ;;		None
  5283 ;; Return value:  Size  Location     Type
  5284 ;;                  1    wreg      void 
  5285 ;; Registers used:
  5286 ;;		wreg, status,2
  5287 ;; Tracked objects:
  5288 ;;		On entry : 0/0
  5289 ;;		On exit  : 0/0
  5290 ;;		Unchanged: 0/0
  5291 ;; Data sizes:     COMMON   BANK0   BANK1   BANK3   BANK2
  5292 ;;      Params:         0       0       0       0       0
  5293 ;;      Locals:         0       0       0       0       0
  5294 ;;      Temps:          0       0       0       0       0
  5295 ;;      Totals:         0       0       0       0       0
  5296 ;;Total ram usage:        0 bytes
  5297 ;; Hardware stack levels used:    1
  5298 ;; Hardware stack levels required when called:    2
  5299 ;; This function calls:
  5300 ;;		Nothing
  5301 ;; This function is called by:
  5302 ;;		_I2C_Master_Start
  5303 ;;		_I2C_Master_Stop
  5304 ;;		_I2C_Master_Write
  5305 ;;		_I2C_Master_Read
  5306 ;;		_I2C_Master_RepeatedStart
  5307 ;; This function uses a non-reentrant model
  5308 ;;
  5309                           
  5310                           
  5311                           ;psect for function _I2C_Master_Wait
  5312  0C1E                     _I2C_Master_Wait:
  5313  0C1E                     l1817:	
  5314                           ;incstack = 0
  5315                           ; Regs used in _I2C_Master_Wait: [wreg+status,2]
  5316                           
  5317  0C1E                     l32:	
  5318                           ;I2C.c: 34:     while ((SSPSTAT & 0x04) || (SSPCON2 & 0x1F));
  5319                           
  5320  0C1E  1683               	bsf	3,5	;RP0=1, select bank1
  5321  0C1F  1303               	bcf	3,6	;RP1=0, select bank1
  5322  0C20  1914               	btfsc	20,2	;volatile
  5323  0C21  2C23               	goto	u1281
  5324  0C22  2C24               	goto	u1280
  5325  0C23                     u1281:
  5326  0C23  2C1E               	goto	l32
  5327  0C24                     u1280:
  5328  0C24                     l1819:
  5329  0C24  0811               	movf	17,w	;volatile
  5330  0C25  391F               	andlw	31
  5331  0C26  1D03               	btfss	3,2
  5332  0C27  2C29               	goto	u1291
  5333  0C28  2C2A               	goto	u1290
  5334  0C29                     u1291:
  5335  0C29  2C1E               	goto	l32
  5336  0C2A                     u1290:
  5337  0C2A                     l35:
  5338  0C2A  0008               	return
  5339  0C2B                     __end_of_I2C_Master_Wait:
  5340                           
  5341                           	psect	text25
  5342  058B                     __ptext25:	
  5343 ;; *************** function _isr *****************
  5344 ;; Defined at:
  5345 ;;		line 101 in file "master_main.c"
  5346 ;; Parameters:    Size  Location     Type
  5347 ;;		None
  5348 ;; Auto vars:     Size  Location     Type
  5349 ;;		None
  5350 ;; Return value:  Size  Location     Type
  5351 ;;                  1    wreg      void 
  5352 ;; Registers used:
  5353 ;;		wreg, fsr0l, fsr0h, status,2, status,0, pclath, cstack
  5354 ;; Tracked objects:
  5355 ;;		On entry : 0/0
  5356 ;;		On exit  : 0/0
  5357 ;;		Unchanged: 0/0
  5358 ;; Data sizes:     COMMON   BANK0   BANK1   BANK3   BANK2
  5359 ;;      Params:         0       0       0       0       0
  5360 ;;      Locals:         0       0       0       0       0
  5361 ;;      Temps:          7       0       0       0       0
  5362 ;;      Totals:         7       0       0       0       0
  5363 ;;Total ram usage:        7 bytes
  5364 ;; Hardware stack levels used:    1
  5365 ;; Hardware stack levels required when called:    1
  5366 ;; This function calls:
  5367 ;;		___bmul
  5368 ;; This function is called by:
  5369 ;;		Interrupt level 1
  5370 ;; This function uses a non-reentrant model
  5371 ;;
  5372                           
  5373                           
  5374                           ;psect for function _isr
  5375  058B                     _isr:
  5376  058B                     i1l2297:
  5377                           
  5378                           ;master_main.c: 103:             }
  5379  058B  1D0B               	btfss	11,2	;volatile
  5380  058C  2D8E               	goto	u215_21
  5381  058D  2D8F               	goto	u215_20
  5382  058E                     u215_21:
  5383  058E  2D96               	goto	i1l2303
  5384  058F                     u215_20:
  5385  058F                     i1l2299:
  5386                           
  5387                           ;master_main.c: 104: 
  5388  058F  3001               	movlw	1
  5389  0590  00F4               	movwf	??_isr
  5390  0591  0874               	movf	??_isr,w
  5391  0592  1283               	bcf	3,5	;RP0=0, select bank0
  5392  0593  1303               	bcf	3,6	;RP1=0, select bank0
  5393  0594  07DE               	addwf	_cont,f
  5394  0595                     i1l2301:
  5395                           
  5396                           ;master_main.c: 105:             if (u_flag == 1){
  5397  0595  110B               	bcf	11,2	;volatile
  5398  0596                     i1l2303:
  5399                           
  5400                           ;master_main.c: 108:                 u_flag = 0;
  5401  0596  1283               	bcf	3,5	;RP0=0, select bank0
  5402  0597  1303               	bcf	3,6	;RP1=0, select bank0
  5403  0598  1E8C               	btfss	12,5	;volatile
  5404  0599  2D9B               	goto	u216_21
  5405  059A  2D9C               	goto	u216_20
  5406  059B                     u216_21:
  5407  059B  2E56               	goto	i1l2361
  5408  059C                     u216_20:
  5409  059C                     i1l2305:
  5410                           
  5411                           ;master_main.c: 110:             }
  5412  059C  300D               	movlw	13
  5413  059D  061A               	xorwf	26,w	;volatile
  5414  059E  1D03               	btfss	3,2
  5415  059F  2DA1               	goto	u217_21
  5416  05A0  2DA2               	goto	u217_20
  5417  05A1                     u217_21:
  5418  05A1  2DA4               	goto	i1l2309
  5419  05A2                     u217_20:
  5420  05A2                     i1l2307:
  5421                           
  5422                           ;master_main.c: 112:                 contador = (unidad*10)+val_USART;
  5423  05A2  3002               	movlw	2
  5424  05A3  0086               	movwf	6	;volatile
  5425  05A4                     i1l2309:
  5426                           
  5427                           ;master_main.c: 115:                 c_flag = 1;
  5428  05A4  300D               	movlw	13
  5429  05A5  061A               	xorwf	26,w	;volatile
  5430  05A6  1903               	btfsc	3,2
  5431  05A7  2DA9               	goto	u218_21
  5432  05A8  2DAA               	goto	u218_20
  5433  05A9                     u218_21:
  5434  05A9  2E56               	goto	i1l2361
  5435  05AA                     u218_20:
  5436  05AA                     i1l2311:
  5437                           
  5438                           ;master_main.c: 116:             }
  5439  05AA  081A               	movf	26,w	;volatile
  5440  05AB  00F4               	movwf	??_isr
  5441  05AC  0874               	movf	??_isr,w
  5442  05AD  00E2               	movwf	_RC_temp
  5443                           
  5444                           ;master_main.c: 118:                 contador = (unidad*100)+(decena*10)+val_USART;
  5445  05AE  2DDC               	goto	i1l2333
  5446  05AF                     i1l2313:
  5447                           
  5448                           ;master_main.c: 120:                 c_flag = 1;
  5449  05AF  01FB               	clrf	_val_USART
  5450                           
  5451                           ;master_main.c: 121:             }
  5452  05B0  2E04               	goto	i1l2335
  5453  05B1                     i1l270:	
  5454                           ;master_main.c: 122:         }
  5455                           
  5456                           
  5457                           ;master_main.c: 123:     }
  5458  05B1  01FB               	clrf	_val_USART
  5459  05B2  0AFB               	incf	_val_USART,f
  5460                           
  5461                           ;master_main.c: 124: 
  5462  05B3  2E04               	goto	i1l2335
  5463  05B4                     i1l2315:
  5464                           
  5465                           ;master_main.c: 126: 
  5466  05B4  3002               	movlw	2
  5467  05B5  00F4               	movwf	??_isr
  5468  05B6  0874               	movf	??_isr,w
  5469  05B7  00FB               	movwf	_val_USART
  5470                           
  5471                           ;master_main.c: 127:         if(guia==0x00){
  5472  05B8  2E04               	goto	i1l2335
  5473  05B9                     i1l2317:
  5474                           
  5475                           ;master_main.c: 129:             guia = 0x01;
  5476  05B9  3003               	movlw	3
  5477  05BA  00F4               	movwf	??_isr
  5478  05BB  0874               	movf	??_isr,w
  5479  05BC  00FB               	movwf	_val_USART
  5480                           
  5481                           ;master_main.c: 130:         }else if(guia==0x01){
  5482  05BD  2E04               	goto	i1l2335
  5483  05BE                     i1l2319:
  5484                           
  5485                           ;master_main.c: 132:             guia =0x02;
  5486  05BE  3004               	movlw	4
  5487  05BF  00F4               	movwf	??_isr
  5488  05C0  0874               	movf	??_isr,w
  5489  05C1  00FB               	movwf	_val_USART
  5490                           
  5491                           ;master_main.c: 133:         } else if(guia==0x02){
  5492  05C2  2E04               	goto	i1l2335
  5493  05C3                     i1l2321:
  5494                           
  5495                           ;master_main.c: 135:             guia = 0x03;
  5496  05C3  3005               	movlw	5
  5497  05C4  00F4               	movwf	??_isr
  5498  05C5  0874               	movf	??_isr,w
  5499  05C6  00FB               	movwf	_val_USART
  5500                           
  5501                           ;master_main.c: 136:         } else if(guia==0x03){
  5502  05C7  2E04               	goto	i1l2335
  5503  05C8                     i1l2323:
  5504                           
  5505                           ;master_main.c: 138:             guia = 0x04;
  5506  05C8  3006               	movlw	6
  5507  05C9  00F4               	movwf	??_isr
  5508  05CA  0874               	movf	??_isr,w
  5509  05CB  00FB               	movwf	_val_USART
  5510                           
  5511                           ;master_main.c: 139:         }else if(guia==0x04){
  5512  05CC  2E04               	goto	i1l2335
  5513  05CD                     i1l2325:
  5514                           
  5515                           ;master_main.c: 141:             guia = 0x05;
  5516  05CD  3007               	movlw	7
  5517  05CE  00F4               	movwf	??_isr
  5518  05CF  0874               	movf	??_isr,w
  5519  05D0  00FB               	movwf	_val_USART
  5520                           
  5521                           ;master_main.c: 142:         }else if(guia==0x05){
  5522  05D1  2E04               	goto	i1l2335
  5523  05D2                     i1l2327:
  5524                           
  5525                           ;master_main.c: 144:             guia = 0x06;
  5526  05D2  3008               	movlw	8
  5527  05D3  00F4               	movwf	??_isr
  5528  05D4  0874               	movf	??_isr,w
  5529  05D5  00FB               	movwf	_val_USART
  5530                           
  5531                           ;master_main.c: 145:         } else if(guia==0x06){
  5532  05D6  2E04               	goto	i1l2335
  5533  05D7                     i1l2329:
  5534                           
  5535                           ;master_main.c: 147:             guia = 0x07;
  5536  05D7  3009               	movlw	9
  5537  05D8  00F4               	movwf	??_isr
  5538  05D9  0874               	movf	??_isr,w
  5539  05DA  00FB               	movwf	_val_USART
  5540                           
  5541                           ;master_main.c: 148:         } else if(guia==0x07){
  5542  05DB  2E04               	goto	i1l2335
  5543  05DC                     i1l2333:
  5544  05DC  0862               	movf	_RC_temp,w
  5545  05DD  00F4               	movwf	??_isr
  5546  05DE  01F5               	clrf	??_isr+1
  5547                           
  5548                           ; Switch on 2 bytes has been partitioned into a top level switch of size 1, and 1 sub-sw
      +                          itches
  5549                           ; Switch size 1, requested type "simple"
  5550                           ; Number of cases is 1, Range of values is 0 to 0
  5551                           ; switch strategies available:
  5552                           ; Name         Instructions Cycles
  5553                           ; simple_byte            4     3 (average)
  5554                           ; direct_byte           11     8 (fixed)
  5555                           ; jumptable            260     6 (fixed)
  5556                           ;	Chosen strategy is simple_byte
  5557  05DF  0875               	movf	??_isr+1,w
  5558  05E0  3A00               	xorlw	0	; case 0
  5559  05E1  1903               	skipnz
  5560  05E2  2DE4               	goto	i1l2581
  5561  05E3  2E04               	goto	i1l2335
  5562  05E4                     i1l2581:
  5563                           
  5564                           ; Switch size 1, requested type "simple"
  5565                           ; Number of cases is 10, Range of values is 48 to 57
  5566                           ; switch strategies available:
  5567                           ; Name         Instructions Cycles
  5568                           ; simple_byte           31    16 (average)
  5569                           ; direct_byte           41    11 (fixed)
  5570                           ; jumptable            263     9 (fixed)
  5571                           ;	Chosen strategy is simple_byte
  5572  05E4  0874               	movf	??_isr,w
  5573  05E5  3A30               	xorlw	48	; case 48
  5574  05E6  1903               	skipnz
  5575  05E7  2DAF               	goto	i1l2313
  5576  05E8  3A01               	xorlw	1	; case 49
  5577  05E9  1903               	skipnz
  5578  05EA  2DB1               	goto	i1l270
  5579  05EB  3A03               	xorlw	3	; case 50
  5580  05EC  1903               	skipnz
  5581  05ED  2DB4               	goto	i1l2315
  5582  05EE  3A01               	xorlw	1	; case 51
  5583  05EF  1903               	skipnz
  5584  05F0  2DB9               	goto	i1l2317
  5585  05F1  3A07               	xorlw	7	; case 52
  5586  05F2  1903               	skipnz
  5587  05F3  2DBE               	goto	i1l2319
  5588  05F4  3A01               	xorlw	1	; case 53
  5589  05F5  1903               	skipnz
  5590  05F6  2DC3               	goto	i1l2321
  5591  05F7  3A03               	xorlw	3	; case 54
  5592  05F8  1903               	skipnz
  5593  05F9  2DC8               	goto	i1l2323
  5594  05FA  3A01               	xorlw	1	; case 55
  5595  05FB  1903               	skipnz
  5596  05FC  2DCD               	goto	i1l2325
  5597  05FD  3A0F               	xorlw	15	; case 56
  5598  05FE  1903               	skipnz
  5599  05FF  2DD2               	goto	i1l2327
  5600  0600  3A01               	xorlw	1	; case 57
  5601  0601  1903               	skipnz
  5602  0602  2DD7               	goto	i1l2329
  5603  0603  2E04               	goto	i1l2335
  5604  0604                     i1l2335:
  5605                           
  5606                           ;master_main.c: 151:         }else if(guia==0x08){
  5607  0604  036F               	decf	_u_flag,w
  5608  0605  1D03               	btfss	3,2
  5609  0606  2E08               	goto	u219_21
  5610  0607  2E09               	goto	u219_20
  5611  0608                     u219_21:
  5612  0608  2E15               	goto	i1l2343
  5613  0609                     u219_20:
  5614  0609                     i1l2337:
  5615                           
  5616                           ;master_main.c: 152:             TXREG = 0x0D;
  5617  0609  087B               	movf	_val_USART,w
  5618  060A  00F4               	movwf	??_isr
  5619  060B  0874               	movf	??_isr,w
  5620  060C  00E1               	movwf	_contador
  5621                           
  5622                           ;master_main.c: 153:             guia = 0x09;
  5623  060D  087B               	movf	_val_USART,w
  5624  060E  00F4               	movwf	??_isr
  5625  060F  0874               	movf	??_isr,w
  5626  0610  00DA               	movwf	_unidad
  5627  0611                     i1l2339:
  5628                           
  5629                           ;master_main.c: 154:         }else if(guia==0x09){
  5630  0611  01EF               	clrf	_u_flag
  5631  0612                     i1l2341:
  5632                           
  5633                           ;master_main.c: 155:             TXREG = bandera_buzzer+48;
  5634  0612  01DC               	clrf	_d_flag
  5635  0613  0ADC               	incf	_d_flag,f
  5636                           
  5637                           ;master_main.c: 156:             guia = 0x0A;
  5638  0614  2E56               	goto	i1l2361
  5639  0615                     i1l2343:
  5640  0615  035C               	decf	_d_flag,w
  5641  0616  1D03               	btfss	3,2
  5642  0617  2E19               	goto	u220_21
  5643  0618  2E1A               	goto	u220_20
  5644  0619                     u220_21:
  5645  0619  2E32               	goto	i1l2353
  5646  061A                     u220_20:
  5647  061A                     i1l2345:
  5648                           
  5649                           ;master_main.c: 158:             TXREG = 0x0D;
  5650  061A  300A               	movlw	10
  5651  061B  00F4               	movwf	??_isr
  5652  061C  0874               	movf	??_isr,w
  5653  061D  00F0               	movwf	___bmul@multiplicand
  5654  061E  085A               	movf	_unidad,w
  5655  061F  120A  158A  244B  120A  118A  	fcall	___bmul
  5656  0624  077B               	addwf	_val_USART,w
  5657  0625  00F5               	movwf	??_isr+1
  5658  0626  0875               	movf	??_isr+1,w
  5659  0627  1283               	bcf	3,5	;RP0=0, select bank0
  5660  0628  1303               	bcf	3,6	;RP1=0, select bank0
  5661  0629  00E1               	movwf	_contador
  5662  062A                     i1l2347:
  5663                           
  5664                           ;master_main.c: 159:             guia = 0x00;
  5665  062A  087B               	movf	_val_USART,w
  5666  062B  00F4               	movwf	??_isr
  5667  062C  0874               	movf	??_isr,w
  5668  062D  00D9               	movwf	_decena
  5669  062E                     i1l2349:
  5670                           
  5671                           ;master_main.c: 160:         }
  5672  062E  01DC               	clrf	_d_flag
  5673  062F                     i1l2351:
  5674                           
  5675                           ;master_main.c: 161: 
  5676  062F  01DB               	clrf	_c_flag
  5677  0630  0ADB               	incf	_c_flag,f
  5678                           
  5679                           ;master_main.c: 162:         TXIF = 0;
  5680  0631  2E56               	goto	i1l2361
  5681  0632                     i1l2353:
  5682  0632  035B               	decf	_c_flag,w
  5683  0633  1D03               	btfss	3,2
  5684  0634  2E36               	goto	u221_21
  5685  0635  2E37               	goto	u221_20
  5686  0636                     u221_21:
  5687  0636  2E56               	goto	i1l266
  5688  0637                     u221_20:
  5689  0637                     i1l2355:
  5690                           
  5691                           ;master_main.c: 164: 
  5692  0637  300A               	movlw	10
  5693  0638  00F4               	movwf	??_isr
  5694  0639  0874               	movf	??_isr,w
  5695  063A  00F0               	movwf	___bmul@multiplicand
  5696  063B  0859               	movf	_decena,w
  5697  063C  120A  158A  244B  120A  118A  	fcall	___bmul
  5698  0641  00F5               	movwf	??_isr+1
  5699  0642  3064               	movlw	100
  5700  0643  00F6               	movwf	??_isr+2
  5701  0644  0876               	movf	??_isr+2,w
  5702  0645  00F0               	movwf	___bmul@multiplicand
  5703  0646  1283               	bcf	3,5	;RP0=0, select bank0
  5704  0647  1303               	bcf	3,6	;RP1=0, select bank0
  5705  0648  085A               	movf	_unidad,w
  5706  0649  120A  158A  244B  120A  118A  	fcall	___bmul
  5707  064E  0775               	addwf	??_isr+1,w
  5708  064F  077B               	addwf	_val_USART,w
  5709  0650  00F7               	movwf	??_isr+3
  5710  0651  0877               	movf	??_isr+3,w
  5711  0652  1283               	bcf	3,5	;RP0=0, select bank0
  5712  0653  1303               	bcf	3,6	;RP1=0, select bank0
  5713  0654  00E1               	movwf	_contador
  5714  0655  2E2E               	goto	i1l2349
  5715  0656                     i1l266:	
  5716                           ;master_main.c: 168: void main (void){
  5717                           
  5718  0656                     i1l2361:
  5719                           
  5720                           ;master_main.c: 171:     Lcd_Clear();
  5721  0656  1E0C               	btfss	12,4	;volatile
  5722  0657  2E59               	goto	u222_21
  5723  0658  2E5A               	goto	u222_20
  5724  0659                     u222_21:
  5725  0659  2EE4               	goto	i1l306
  5726  065A                     u222_20:
  5727  065A                     i1l2363:
  5728                           
  5729                           ;master_main.c: 173:     Lcd_Write_String(" S1:   S2:   S3:");
  5730  065A  087C               	movf	_guia,w
  5731  065B  1D03               	btfss	3,2
  5732  065C  2E5E               	goto	u223_21
  5733  065D  2E5F               	goto	u223_20
  5734  065E                     u223_21:
  5735  065E  2E64               	goto	i1l2369
  5736  065F                     u223_20:
  5737  065F                     i1l2365:
  5738                           
  5739                           ;master_main.c: 174:     while(1){
  5740  065F  087D               	movf	_POS1_LDR,w
  5741  0660  0099               	movwf	25	;volatile
  5742  0661                     i1l2367:
  5743                           
  5744                           ;master_main.c: 175: 
  5745  0661  01FC               	clrf	_guia
  5746  0662  0AFC               	incf	_guia,f
  5747                           
  5748                           ;master_main.c: 176:         I2C_Master_Start();
  5749  0663  2EE3               	goto	i1l2413
  5750  0664                     i1l2369:
  5751  0664  037C               	decf	_guia,w
  5752  0665  1D03               	btfss	3,2
  5753  0666  2E68               	goto	u224_21
  5754  0667  2E69               	goto	u224_20
  5755  0668                     u224_21:
  5756  0668  2E70               	goto	i1l2373
  5757  0669                     u224_20:
  5758  0669                     i1l2371:
  5759                           
  5760                           ;master_main.c: 177:         I2C_Master_Write(0x71);
  5761  0669  302E               	movlw	46
  5762  066A  0099               	movwf	25	;volatile
  5763                           
  5764                           ;master_main.c: 178:         valor_ADC = I2C_Master_Read(0);
  5765  066B  3002               	movlw	2
  5766  066C  00F4               	movwf	??_isr
  5767  066D  0874               	movf	??_isr,w
  5768  066E  00FC               	movwf	_guia
  5769                           
  5770                           ;master_main.c: 179:         I2C_Master_Stop();
  5771  066F  2EE3               	goto	i1l2413
  5772  0670                     i1l2373:
  5773  0670  3002               	movlw	2
  5774  0671  067C               	xorwf	_guia,w
  5775  0672  1D03               	btfss	3,2
  5776  0673  2E75               	goto	u225_21
  5777  0674  2E76               	goto	u225_20
  5778  0675                     u225_21:
  5779  0675  2E7D               	goto	i1l2377
  5780  0676                     u225_20:
  5781  0676                     i1l2375:
  5782                           
  5783                           ;master_main.c: 180:         _delay((unsigned long)((310)*(8000000/4000.0)));
  5784  0676  086B               	movf	_POS2_LDR,w
  5785  0677  0099               	movwf	25	;volatile
  5786                           
  5787                           ;master_main.c: 181: 
  5788  0678  3003               	movlw	3
  5789  0679  00F4               	movwf	??_isr
  5790  067A  0874               	movf	??_isr,w
  5791  067B  00FC               	movwf	_guia
  5792                           
  5793                           ;master_main.c: 182: 
  5794  067C  2EE3               	goto	i1l2413
  5795  067D                     i1l2377:
  5796  067D  3003               	movlw	3
  5797  067E  067C               	xorwf	_guia,w
  5798  067F  1D03               	btfss	3,2
  5799  0680  2E82               	goto	u226_21
  5800  0681  2E83               	goto	u226_20
  5801  0682                     u226_21:
  5802  0682  2E8A               	goto	i1l2381
  5803  0683                     u226_20:
  5804  0683                     i1l2379:
  5805                           
  5806                           ;master_main.c: 183:         I2C_Master_Start();
  5807  0683  086A               	movf	_POS3_LDR,w
  5808  0684  0099               	movwf	25	;volatile
  5809                           
  5810                           ;master_main.c: 184:         I2C_Master_Write(0x81);
  5811  0685  3004               	movlw	4
  5812  0686  00F4               	movwf	??_isr
  5813  0687  0874               	movf	??_isr,w
  5814  0688  00FC               	movwf	_guia
  5815                           
  5816                           ;master_main.c: 185:         T_byte1 = I2C_Master_Read(0);
  5817  0689  2EE3               	goto	i1l2413
  5818  068A                     i1l2381:
  5819  068A  3004               	movlw	4
  5820  068B  067C               	xorwf	_guia,w
  5821  068C  1D03               	btfss	3,2
  5822  068D  2E8F               	goto	u227_21
  5823  068E  2E90               	goto	u227_20
  5824  068F                     u227_21:
  5825  068F  2E97               	goto	i1l2385
  5826  0690                     u227_20:
  5827  0690                     i1l2383:
  5828                           
  5829                           ;master_main.c: 186:         I2C_Master_Stop();
  5830  0690  300D               	movlw	13
  5831  0691  0099               	movwf	25	;volatile
  5832                           
  5833                           ;master_main.c: 187:         _delay((unsigned long)((310)*(8000000/4000.0)));
  5834  0692  3005               	movlw	5
  5835  0693  00F4               	movwf	??_isr
  5836  0694  0874               	movf	??_isr,w
  5837  0695  00FC               	movwf	_guia
  5838                           
  5839                           ;master_main.c: 188: 
  5840  0696  2EE3               	goto	i1l2413
  5841  0697                     i1l2385:
  5842  0697  3005               	movlw	5
  5843  0698  067C               	xorwf	_guia,w
  5844  0699  1D03               	btfss	3,2
  5845  069A  2E9C               	goto	u228_21
  5846  069B  2E9D               	goto	u228_20
  5847  069C                     u228_21:
  5848  069C  2EA4               	goto	i1l2389
  5849  069D                     u228_20:
  5850  069D                     i1l2387:
  5851                           
  5852                           ;master_main.c: 189:         moverVentilador();
  5853  069D  0869               	movf	_POS1_TMP,w
  5854  069E  0099               	movwf	25	;volatile
  5855                           
  5856                           ;master_main.c: 190: 
  5857  069F  3006               	movlw	6
  5858  06A0  00F4               	movwf	??_isr
  5859  06A1  0874               	movf	??_isr,w
  5860  06A2  00FC               	movwf	_guia
  5861                           
  5862                           ;master_main.c: 191:         I2C_Master_Start();
  5863  06A3  2EE3               	goto	i1l2413
  5864  06A4                     i1l2389:
  5865  06A4  3006               	movlw	6
  5866  06A5  067C               	xorwf	_guia,w
  5867  06A6  1D03               	btfss	3,2
  5868  06A7  2EA9               	goto	u229_21
  5869  06A8  2EAA               	goto	u229_20
  5870  06A9                     u229_21:
  5871  06A9  2EB1               	goto	i1l2393
  5872  06AA                     u229_20:
  5873  06AA                     i1l2391:
  5874                           
  5875                           ;master_main.c: 192:         I2C_Master_Write(0x71);
  5876  06AA  0868               	movf	_POS2_TMP,w
  5877  06AB  0099               	movwf	25	;volatile
  5878                           
  5879                           ;master_main.c: 193:         alarma = I2C_Master_Read(0);
  5880  06AC  3007               	movlw	7
  5881  06AD  00F4               	movwf	??_isr
  5882  06AE  0874               	movf	??_isr,w
  5883  06AF  00FC               	movwf	_guia
  5884                           
  5885                           ;master_main.c: 194:         I2C_Master_Stop();
  5886  06B0  2EE3               	goto	i1l2413
  5887  06B1                     i1l2393:
  5888  06B1  3007               	movlw	7
  5889  06B2  067C               	xorwf	_guia,w
  5890  06B3  1D03               	btfss	3,2
  5891  06B4  2EB6               	goto	u230_21
  5892  06B5  2EB7               	goto	u230_20
  5893  06B6                     u230_21:
  5894  06B6  2EBE               	goto	i1l2397
  5895  06B7                     u230_20:
  5896  06B7                     i1l2395:
  5897                           
  5898                           ;master_main.c: 195:         _delay((unsigned long)((310)*(8000000/4000.0)));
  5899  06B7  0867               	movf	_POS3_TMP,w
  5900  06B8  0099               	movwf	25	;volatile
  5901                           
  5902                           ;master_main.c: 196: 
  5903  06B9  3008               	movlw	8
  5904  06BA  00F4               	movwf	??_isr
  5905  06BB  0874               	movf	??_isr,w
  5906  06BC  00FC               	movwf	_guia
  5907                           
  5908                           ;master_main.c: 197:         if(alarma==0xFF){
  5909  06BD  2EE3               	goto	i1l2413
  5910  06BE                     i1l2397:
  5911  06BE  3008               	movlw	8
  5912  06BF  067C               	xorwf	_guia,w
  5913  06C0  1D03               	btfss	3,2
  5914  06C1  2EC3               	goto	u231_21
  5915  06C2  2EC4               	goto	u231_20
  5916  06C3                     u231_21:
  5917  06C3  2ECB               	goto	i1l2401
  5918  06C4                     u231_20:
  5919  06C4                     i1l2399:
  5920                           
  5921                           ;master_main.c: 198:             alarmaBuzzer();
  5922  06C4  300D               	movlw	13
  5923  06C5  0099               	movwf	25	;volatile
  5924                           
  5925                           ;master_main.c: 199:             bandera_buzzer = 1;
  5926  06C6  3009               	movlw	9
  5927  06C7  00F4               	movwf	??_isr
  5928  06C8  0874               	movf	??_isr,w
  5929  06C9  00FC               	movwf	_guia
  5930                           
  5931                           ;master_main.c: 200:         }else{
  5932  06CA  2EE3               	goto	i1l2413
  5933  06CB                     i1l2401:
  5934  06CB  3009               	movlw	9
  5935  06CC  067C               	xorwf	_guia,w
  5936  06CD  1D03               	btfss	3,2
  5937  06CE  2ED0               	goto	u232_21
  5938  06CF  2ED1               	goto	u232_20
  5939  06D0                     u232_21:
  5940  06D0  2ED9               	goto	i1l2407
  5941  06D1                     u232_20:
  5942  06D1                     i1l2403:
  5943                           
  5944                           ;master_main.c: 201:             bandera_buzzer = 0;
  5945  06D1  085D               	movf	_bandera_buzzer,w
  5946  06D2  3E30               	addlw	48
  5947  06D3  0099               	movwf	25	;volatile
  5948  06D4                     i1l2405:
  5949                           
  5950                           ;master_main.c: 202:             POS1_BZ = 45;
  5951  06D4  300A               	movlw	10
  5952  06D5  00F4               	movwf	??_isr
  5953  06D6  0874               	movf	??_isr,w
  5954  06D7  00FC               	movwf	_guia
  5955                           
  5956                           ;master_main.c: 203:             POS2_BZ = 45;
  5957  06D8  2EE3               	goto	i1l2413
  5958  06D9                     i1l2407:
  5959  06D9  300A               	movlw	10
  5960  06DA  067C               	xorwf	_guia,w
  5961  06DB  1D03               	btfss	3,2
  5962  06DC  2EDE               	goto	u233_21
  5963  06DD  2EDF               	goto	u233_20
  5964  06DE                     u233_21:
  5965  06DE  2EE3               	goto	i1l300
  5966  06DF                     u233_20:
  5967  06DF                     i1l2409:
  5968                           
  5969                           ;master_main.c: 204:             POS3_BZ = 45;
  5970  06DF  300D               	movlw	13
  5971  06E0  0099               	movwf	25	;volatile
  5972  06E1                     i1l2411:
  5973                           
  5974                           ;master_main.c: 205:         }
  5975  06E1  01FC               	clrf	_guia
  5976  06E2  2EE3               	goto	i1l2413
  5977  06E3                     i1l300:
  5978  06E3                     i1l2413:
  5979                           
  5980                           ;master_main.c: 208: 
  5981  06E3  120C               	bcf	12,4	;volatile
  5982  06E4                     i1l306:
  5983  06E4  087A               	movf	??_isr+6,w
  5984  06E5  008A               	movwf	10
  5985  06E6  0879               	movf	??_isr+5,w
  5986  06E7  0084               	movwf	4
  5987  06E8  0E78               	swapf	??_isr+4,w
  5988  06E9  0083               	movwf	3
  5989  06EA  0EFE               	swapf	btemp,f
  5990  06EB  0E7E               	swapf	btemp,w
  5991  06EC  0009               	retfie
  5992  06ED                     __end_of_isr:
  5993                           
  5994                           	psect	intentry
  5995  0004                     __pintentry:	
  5996                           ;incstack = 0
  5997                           ; Regs used in _isr: [wreg-fsr0h+status,2+status,0+pclath+cstack]
  5998                           
  5999  0004                     interrupt_function:
  6000  007E                     saved_w	set	btemp
  6001  0004  00FE               	movwf	btemp
  6002  0005  0E03               	swapf	3,w
  6003  0006  00F8               	movwf	??_isr+4
  6004  0007  0804               	movf	4,w
  6005  0008  00F9               	movwf	??_isr+5
  6006  0009  080A               	movf	10,w
  6007  000A  00FA               	movwf	??_isr+6
  6008  000B  120A  118A  2D8B   	ljmp	_isr
  6009                           
  6010                           	psect	text26
  6011  0C4B                     __ptext26:	
  6012 ;; *************** function ___bmul *****************
  6013 ;; Defined at:
  6014 ;;		line 4 in file "C:\Program Files\Microchip\xc8\v2.31\pic\sources\c90\common\Umul8.c"
  6015 ;; Parameters:    Size  Location     Type
  6016 ;;  multiplier      1    wreg     unsigned char 
  6017 ;;  multiplicand    1    0[COMMON] unsigned char 
  6018 ;; Auto vars:     Size  Location     Type
  6019 ;;  multiplier      1    3[COMMON] unsigned char 
  6020 ;;  product         1    2[COMMON] unsigned char 
  6021 ;; Return value:  Size  Location     Type
  6022 ;;                  1    wreg      unsigned char 
  6023 ;; Registers used:
  6024 ;;		wreg, status,2, status,0
  6025 ;; Tracked objects:
  6026 ;;		On entry : 0/0
  6027 ;;		On exit  : 0/0
  6028 ;;		Unchanged: 0/0
  6029 ;; Data sizes:     COMMON   BANK0   BANK1   BANK3   BANK2
  6030 ;;      Params:         1       0       0       0       0
  6031 ;;      Locals:         2       0       0       0       0
  6032 ;;      Temps:          1       0       0       0       0
  6033 ;;      Totals:         4       0       0       0       0
  6034 ;;Total ram usage:        4 bytes
  6035 ;; Hardware stack levels used:    1
  6036 ;; This function calls:
  6037 ;;		Nothing
  6038 ;; This function is called by:
  6039 ;;		_isr
  6040 ;; This function uses a non-reentrant model
  6041 ;;
  6042                           
  6043                           
  6044                           ;psect for function ___bmul
  6045  0C4B                     ___bmul:
  6046                           
  6047                           ;incstack = 0
  6048                           ; Regs used in ___bmul: [wreg+status,2+status,0]
  6049                           ;___bmul@multiplier stored from wreg
  6050  0C4B  00F3               	movwf	___bmul@multiplier
  6051  0C4C                     i1l2055:
  6052  0C4C  01F2               	clrf	___bmul@product
  6053  0C4D                     i1l2057:
  6054  0C4D  1C73               	btfss	___bmul@multiplier,0
  6055  0C4E  2C50               	goto	u152_21
  6056  0C4F  2C51               	goto	u152_20
  6057  0C50                     u152_21:
  6058  0C50  2C55               	goto	i1l2061
  6059  0C51                     u152_20:
  6060  0C51                     i1l2059:
  6061  0C51  0870               	movf	___bmul@multiplicand,w
  6062  0C52  00F1               	movwf	??___bmul
  6063  0C53  0871               	movf	??___bmul,w
  6064  0C54  07F2               	addwf	___bmul@product,f
  6065  0C55                     i1l2061:
  6066  0C55  1003               	clrc
  6067  0C56  0DF0               	rlf	___bmul@multiplicand,f
  6068  0C57                     i1l2063:
  6069  0C57  1003               	clrc
  6070  0C58  0CF3               	rrf	___bmul@multiplier,f
  6071  0C59  0873               	movf	___bmul@multiplier,w
  6072  0C5A  1D03               	btfss	3,2
  6073  0C5B  2C5D               	goto	u153_21
  6074  0C5C  2C5E               	goto	u153_20
  6075  0C5D                     u153_21:
  6076  0C5D  2C4D               	goto	i1l2057
  6077  0C5E                     u153_20:
  6078  0C5E                     i1l2065:
  6079  0C5E  0872               	movf	___bmul@product,w
  6080  0C5F                     i1l467:
  6081  0C5F  0008               	return
  6082  0C60                     __end_of___bmul:
  6083  007E                     btemp	set	126	;btemp
  6084  007E                     wtemp0	set	126
  6085                           
  6086                           	psect	config
  6087                           
  6088                           ;Config register CONFIG1 @ 0x2007
  6089                           ;	Oscillator Selection bits
  6090                           ;	FOSC = INTRC_NOCLKOUT, INTOSCIO oscillator: I/O function on RA6/OSC2/CLKOUT pin, I/O f
      +                          unction on RA7/OSC1/CLKIN
  6091                           ;	Watchdog Timer Enable bit
  6092                           ;	WDTE = OFF, WDT disabled and can be enabled by SWDTEN bit of the WDTCON register
  6093                           ;	Power-up Timer Enable bit
  6094                           ;	PWRTE = ON, PWRT enabled
  6095                           ;	RE3/MCLR pin function select bit
  6096                           ;	MCLRE = OFF, RE3/MCLR pin function is digital input, MCLR internally tied to VDD
  6097                           ;	Code Protection bit
  6098                           ;	CP = OFF, Program memory code protection is disabled
  6099                           ;	Data Code Protection bit
  6100                           ;	CPD = OFF, Data memory code protection is disabled
  6101                           ;	Brown Out Reset Selection bits
  6102                           ;	BOREN = OFF, BOR disabled
  6103                           ;	Internal External Switchover bit
  6104                           ;	IESO = OFF, Internal/External Switchover mode is disabled
  6105                           ;	Fail-Safe Clock Monitor Enabled bit
  6106                           ;	FCMEN = OFF, Fail-Safe Clock Monitor is disabled
  6107                           ;	Low Voltage Programming Enable bit
  6108                           ;	LVP = OFF, RB3 pin has digital I/O, HV on MCLR must be used for programming
  6109                           ;	In-Circuit Debugger Mode bit
  6110                           ;	DEBUG = 0x1, unprogrammed default
  6111  2007                     	org	8199
  6112  2007  20C4               	dw	8388
  6113                           
  6114                           ;Config register CONFIG2 @ 0x2008
  6115                           ;	Brown-out Reset Selection bit
  6116                           ;	BOR4V = BOR40V, Brown-out Reset set to 4.0V
  6117                           ;	Flash Program Memory Self Write Enable bits
  6118                           ;	WRT = OFF, Write protection off
  6119  2008                     	org	8200
  6120  2008  3FFF               	dw	16383

Data Sizes:
    Strings     25
    Constant    0
    Data        1
    BSS         33
    Persistent  0
    Stack       0

Auto Spaces:
    Space          Size  Autos    Used
    COMMON           14     11      14
    BANK0            80     54      80
    BANK1            80      0       5
    BANK3            96      0       0
    BANK2            96      0       0

Pointer List with Targets:

    Lcd_Write_String@a	PTR unsigned char  size(1) Largest target is 17
		 -> STR_4(CODE[1]), STR_3(CODE[5]), STR_2(CODE[3]), STR_1(CODE[17]), 


Critical Paths under _main in COMMON

    None.

Critical Paths under _isr in COMMON

    _isr->___bmul

Critical Paths under _main in BANK0

    _main->___fltol
    _setup->_I2C_Master_Init
    _I2C_Master_Init->___lldiv
    ___fltol->___flmul
    ___flmul->___xxtofl
    _VAL->___lwdiv
    _Lcd_Write_String->_Lcd_Write_Char
    _Lcd_Write_Char->_Lcd_Port
    _Lcd_Set_Cursor->_Lcd_Cmd
    _Lcd_Init->_Lcd_Cmd
    _Lcd_Clear->_Lcd_Cmd
    _Lcd_Cmd->_Lcd_Port

Critical Paths under _isr in BANK0

    None.

Critical Paths under _main in BANK1

    None.

Critical Paths under _isr in BANK1

    None.

Critical Paths under _main in BANK3

    None.

Critical Paths under _isr in BANK3

    None.

Critical Paths under _main in BANK2

    None.

Critical Paths under _isr in BANK2

    None.

Call Graph Tables:

 ---------------------------------------------------------------------------------
 (Depth) Function   	        Calls       Base Space   Used Autos Params    Refs
 ---------------------------------------------------------------------------------
 (0) _main                                                 3     3      0    6258
                                             51 BANK0      3     3      0
                    _I2C_Master_Read
                   _I2C_Master_Start
                    _I2C_Master_Stop
                   _I2C_Master_Write
                          _Lcd_Clear
                           _Lcd_Init
                     _Lcd_Set_Cursor
                     _Lcd_Write_Char
                   _Lcd_Write_String
                                _VAL
                            ___flmul
                            ___fltol
                           ___xxtofl
                       _alarmaBuzzer
                    _moverVentilador
                              _setup
 ---------------------------------------------------------------------------------
 (1) _setup                                                0     0      0     412
                    _I2C_Master_Init
 ---------------------------------------------------------------------------------
 (2) _I2C_Master_Init                                      8     4      4     412
                                             14 BANK0      8     4      4
                            ___lldiv
 ---------------------------------------------------------------------------------
 (3) ___lldiv                                             14     6      8     314
                                              0 BANK0     14     6      8
 ---------------------------------------------------------------------------------
 (1) _moverVentilador                                      0     0      0       0
 ---------------------------------------------------------------------------------
 (1) _alarmaBuzzer                                         3     3      0       0
                                              0 BANK0      3     3      0
 ---------------------------------------------------------------------------------
 (1) ___xxtofl                                            14    10      4     398
                                              0 BANK0     14    10      4
 ---------------------------------------------------------------------------------
 (1) ___fltol                                             11     7      4     305
                                             40 BANK0     11     7      4
                            ___flmul (ARG)
                           ___xxtofl (ARG)
 ---------------------------------------------------------------------------------
 (1) ___flmul                                             26    18      8    2417
                                             14 BANK0     26    18      8
                          __Umul8_16
                           ___xxtofl (ARG)
 ---------------------------------------------------------------------------------
 (2) __Umul8_16                                            9     7      2     799
                                              0 BANK0      9     7      2
 ---------------------------------------------------------------------------------
 (1) _VAL                                                  6     4      2    1225
                                              8 BANK0      6     4      2
                            ___lwdiv
                             ___wmul
 ---------------------------------------------------------------------------------
 (2) ___wmul                                               6     2      4     396
                                              0 BANK0      6     2      4
 ---------------------------------------------------------------------------------
 (2) ___lwdiv                                              8     4      4     466
                                              0 BANK0      8     4      4
 ---------------------------------------------------------------------------------
 (1) _Lcd_Write_String                                     3     3      0     312
                                              5 BANK0      3     3      0
                     _Lcd_Write_Char
 ---------------------------------------------------------------------------------
 (2) _Lcd_Write_Char                                       4     4      0      90
                                              1 BANK0      4     4      0
                           _Lcd_Port
 ---------------------------------------------------------------------------------
 (1) _Lcd_Set_Cursor                                       7     6      1     466
                                              4 BANK0      7     6      1
                            _Lcd_Cmd
 ---------------------------------------------------------------------------------
 (1) _Lcd_Init                                             2     2      0      66
                                              4 BANK0      2     2      0
                            _Lcd_Cmd
                           _Lcd_Port
 ---------------------------------------------------------------------------------
 (1) _Lcd_Clear                                            0     0      0      44
                            _Lcd_Cmd
 ---------------------------------------------------------------------------------
 (2) _Lcd_Cmd                                              3     3      0      44
                                              1 BANK0      3     3      0
                           _Lcd_Port
 ---------------------------------------------------------------------------------
 (3) _Lcd_Port                                             1     1      0      22
                                              0 BANK0      1     1      0
 ---------------------------------------------------------------------------------
 (1) _I2C_Master_Write                                     2     0      2     250
                                              0 BANK0      2     0      2
                    _I2C_Master_Wait
 ---------------------------------------------------------------------------------
 (1) _I2C_Master_Stop                                      0     0      0       0
                    _I2C_Master_Wait
 ---------------------------------------------------------------------------------
 (1) _I2C_Master_Start                                     0     0      0       0
                    _I2C_Master_Wait
 ---------------------------------------------------------------------------------
 (1) _I2C_Master_Read                                      6     4      2     273
                                              0 BANK0      6     4      2
                    _I2C_Master_Wait
 ---------------------------------------------------------------------------------
 (2) _I2C_Master_Wait                                      0     0      0       0
 ---------------------------------------------------------------------------------
 Estimated maximum stack depth 3
 ---------------------------------------------------------------------------------
 (Depth) Function   	        Calls       Base Space   Used Autos Params    Refs
 ---------------------------------------------------------------------------------
 (4) _isr                                                  7     7      0     320
                                              4 COMMON     7     7      0
                             ___bmul
 ---------------------------------------------------------------------------------
 (5) ___bmul                                               4     3      1     320
                                              0 COMMON     4     3      1
 ---------------------------------------------------------------------------------
 Estimated maximum stack depth 5
 ---------------------------------------------------------------------------------

 Call Graph Graphs:

 _main (ROOT)
   _I2C_Master_Read
     _I2C_Master_Wait
   _I2C_Master_Start
     _I2C_Master_Wait
   _I2C_Master_Stop
     _I2C_Master_Wait
   _I2C_Master_Write
     _I2C_Master_Wait
   _Lcd_Clear
     _Lcd_Cmd
       _Lcd_Port
   _Lcd_Init
     _Lcd_Cmd
       _Lcd_Port
     _Lcd_Port
   _Lcd_Set_Cursor
     _Lcd_Cmd
       _Lcd_Port
   _Lcd_Write_Char
     _Lcd_Port
   _Lcd_Write_String
     _Lcd_Write_Char
       _Lcd_Port
   _VAL
     ___lwdiv
     ___wmul
   ___flmul
     __Umul8_16
     ___xxtofl (ARG)
   ___fltol
     ___flmul (ARG)
       __Umul8_16
       ___xxtofl (ARG)
     ___xxtofl (ARG)
   ___xxtofl
   _alarmaBuzzer
   _moverVentilador
   _setup
     _I2C_Master_Init
       ___lldiv

 _isr (ROOT)
   ___bmul

 Address spaces:
Name               Size   Autos  Total    Cost      Usage
BANK3               60      0       0       9        0.0%
BITBANK3            60      0       0       8        0.0%
SFR3                 0      0       0       4        0.0%
BITSFR3              0      0       0       4        0.0%
BANK2               60      0       0      11        0.0%
BITBANK2            60      0       0      10        0.0%
SFR2                 0      0       0       5        0.0%
BITSFR2              0      0       0       5        0.0%
BANK1               50      0       5       7        6.2%
BITBANK1            50      0       0       6        0.0%
SFR1                 0      0       0       2        0.0%
BITSFR1              0      0       0       2        0.0%
BANK0               50     36      50       5      100.0%
BITBANK0            50      0       0       4        0.0%
SFR0                 0      0       0       1        0.0%
BITSFR0              0      0       0       1        0.0%
COMMON               E      B       E       1      100.0%
BITCOMMON            E      0       0       0        0.0%
CODE                 0      0       0       0        0.0%
DATA                 0      0      63      12        0.0%
ABS                  0      0      63       3        0.0%
NULL                 0      0       0       0        0.0%
STACK                0      0       0       2        0.0%
EEDATA             100      0       0       0        0.0%


Microchip Technology PIC Macro Assembler V2.31 build 20201012212115 
Symbol Table                                                                                   Tue Aug 31 09:12:06 2021

                        pc 0002             ___bmul@product 0072                         l32 0C1E  
                       l50 0D5D                         l35 0C2A                         l51 0D60  
                       l52 0D67                         l44 07FF                         l29 0DA1  
                       l38 0C13                         l47 0C1D                         l72 0C37  
                       l81 07F6                         l66 0C02                         l90 0D0C  
                       l84 0C9B                         l69 0C7B                         l78 0E3F  
                       fsr 0004        ___wmul@multiplicand 0022        __Umul8_16@word_mpld 0026  
                      l330 0F83                        l324 0EFD                        l333 0C47  
                      l326 0F01                        l335 0C4A                        l327 0F0F  
                      l441 0CCB                        l338 0CBC                        l443 0CE3  
                      l713 0DE7                        l634 0FEA                        l627 0FFF  
                      l637 0FFF                        l477 0EA7                        l830 038E  
                      l842 0382                        l851 0D35                        l836 02FA  
                      l880 0756                        l849 0D23                        l874 0711  
                      l876 07A8                        l887 0772                        l888 077E  
                      _GIE 005F                        _RE0 0048                        _RE1 0049  
                      _PR2 0092                        _VAL 0F10                        _isr 058B  
                      fsr0 0004                        indf 0000               ___flmul@aexp 0040  
             ___flmul@bexp 0041               ___flmul@sign 003B               ___flmul@temp 0046  
             ___flmul@prod 0042                       ?_VAL 0028               ___fltol@exp1 0052  
                     l2001 0EDB                       l2011 0EED                       l2003 0EDD  
                     l2101 0FEF                       l2021 0EFA                       l2013 0EF5  
                     l2005 0EE1                       l2111 003F                       l2103 0FF4  
                     l2031 0C43                       l2023 0EFB                       l2015 0EF7  
                     l2007 0EE5                       l2041 0F16                       l2201 02DA  
                     l2121 0054                       l2113 0040                       l2105 002E  
                     l2033 0C9C                       l2025 0EFC                       l2017 0EF8  
                     l2009 0EE9                       l2051 0F79                       l2043 0F29  
                     l2203 02DE                       l2131 006C                       l2123 005C  
                     l2115 0045                       l2107 0035                       l2035 0C9F  
                     l2027 0F02                       l2019 0EF9                       l2053 0F7E  
                     l2045 0F43                       l2221 032F                       l2213 02FF  
                     l2205 02DF                       l2141 0088                       l2133 0071  
                     l2125 0061                       l2117 004A                       l2109 003B  
                     l2037 0CAD                       l2029 0C38                       l2047 0F56  
                     l2039 0F10                       l2231 0366                       l2215 0304  
                     l2223 0335                       l2207 02E3                       l2151 00AB  
                     l2143 008D                       l2135 0076                       l2127 0067  
                     l2119 0052                       l2071 0F91                       l2049 0F74  
                     l2241 0386                       l2233 0368                       l2225 0342  
                     l2217 0312                       l2209 02F7                       l2161 0139  
                     l2153 00B8                       l2145 0092                       l2137 007E  
                     l2129 006B                       l2081 0FB8                       l2235 0376  
                     l2227 034D                       l2219 0316                       l2171 019B  
                     l2163 0155                       l2155 00D5                       l2139 0080  
                     l2091 0FC6                       l2083 0FBA                       l2075 0F9A  
                     l2251 0709                       l2237 037A                       l2229 035C  
                     l2181 022B                       l2173 01B8                       l2165 015E  
                     l2157 00F1                       l2149 009B                       l2085 0FBE  
                     l2093 0FD8                       l2077 0FAF                       l2069 0F84  
                     l2261 0734                       l2253 0719                       l2245 06F0  
                     l2501 04E2                       l2421 038F                       l2239 037B  
                     l2191 02BD                       l2183 0258                       l2175 01D1  
                     l2167 016E                       l2159 011D                       l2079 0FB0  
                     l2271 0768                       l2263 073B                       l2247 06F5  
                     l2511 0506                       l2503 04EA                       l2431 03CE  
                     l2423 03A8                       l2193 02C6                       l2185 027E  
                     l2177 01EE                       l2169 018B                       l2281 079B  
                     l2273 076C                       l2265 073F                       l2257 0722  
                     l2249 06F9                       l1801 0E9F                       l2521 052B  
                     l2513 050C                       l2505 04F0                       l2441 0408  
                     l2433 03D3                       l2425 03AE                       l2195 02CA  
                     l2187 02A6                       l2179 021B                       l2099 0FDF  
                     l2283 079F                       l2275 0776                       l2267 074D  
                     l2259 0727                       l1811 0D9E                       l2531 0551  
                     l2523 0531                       l2515 051D                       l2507 04F6  
                     l2451 0431                       l2443 040D                       l2435 03E2  
                     l2427 03B3                       l1901 07F7                       l1821 0C63  
                     l2197 02CB                       l2189 02AF                       l2285 07A0  
                     l2277 0780                       l2269 075D       __end_of_alarmaBuzzer 0CBD  
                     l1813 0D9F                       l1805 0D68                       l2541 0577  
                     l2533 0559                       l2525 0539                       l2517 0523  
                     l2509 04FE                       l2461 0461                       l2453 0441  
                     l2445 041C                       l2437 03E7                       l2429 03BE  
                     l1911 0D3B                       l1903 07FC                       l1823 0C64  
                     l1831 0C7F                       l2199 02D4                       l2279 0796  
                     l1815 0DA0                       l1807 0D6C                       l2543 0578  
                     l2535 0561                       l2527 0541                       l2519 0527  
                     l2471 0473                       l2463 0466                       l2455 0446  
                     l2447 0421                       l2439 03F2                       l1817 0C1E  
                     l1921 0D61                       l1913 0D43                       l1905 0C14  
                     l1825 0C6A                       l1841 0C98                       l1833 0C87  
                     l1809 0D6F                       l2545 057B                       l2537 0569  
                     l2529 0547                       l2481 04C2                       l2473 04AB  
                     l2465 0467                       l2457 0455                       l2449 0426  
                     l1819 0C24                       l1915 0D4C                       l1907 0C19  
                     l1827 0C6D                       l1931 0E01                       l1835 0C88  
                     l1851 0CD9                       l1843 0CBD                       l2547 0580  
                     l2539 056F                       l2483 04CB                       l2491 04D1  
                     l2475 04B4                       l2467 046B                       l2459 045C  
                     l1917 0D51                       l1909 0D36                       l1829 0C78  
                     l1925 0C2B                       l1941 0E2C                       l1933 0E06  
                     l1837 0C8E                       l1861 0DAC                       l1853 0CDF  
                     l1845 0CC1                       l1781 0E40                       l2549 0583  
                     l2493 04DA                       l2485 04CC                       l2477 04BA  
                     l2469 046F                       l1919 0D59                       l1951 07BA  
                     l1943 0E31                       l1935 0E0C                       l1927 0DEB  
                     l1839 0C91                       l1871 0DCF                       l1863 0DAF  
                     l1847 0CC5                       l1791 0E6F                       l1783 0E52  
                     l2495 04DE                       l2487 04CE                       l2479 04BE  
                     l1953 07CB                       l1945 0E37                       l1929 0DF0  
                     l1937 0E15                       l1961 0CF7                       l1873 0DD5  
                     l1865 0DB6                       l1857 0DA2                       l1849 0CD2  
                     l1793 0E81                       l1785 0E55                       l2497 04E0  
                     l2489 04CF                       l1779 0C00                       l1955 07D1  
                     l1947 07A9                       l1939 0E1B                       l1963 0CFF  
                     l1875 0DD6                       l1867 0DBA                       l1859 0DA6  
                     l1891 0D2C                       l1883 0D10                       l1795 0E8F  
                     l1787 0E62                       l1971 0EC1                       l2499 04E1  
                     l1949 07AF                       l1957 0CE7                       l1877 0DDD  
                     l1869 0DBE                       l1893 0D31                       l1885 0D12  
                     l1797 0E90                       l1789 0E66                       l1981 0EC8  
                     l1973 0EC2                       l1965 0EA8                       l1959 0CEA  
                     l1879 0DE3                       l1887 0D19                       l1799 0E99  
                     l1991 0ED4                       l1983 0EC9                       l1975 0EC3  
                     l1967 0EAE                       l1897 0C0B                       l1889 0D1D  
                     l1993 0ED5                       l1985 0ECC                       l1977 0EC4  
                     l1969 0EB8                       l1899 0C10                       l1995 0ED6  
                     l1987 0ED0                       l1979 0EC5                       l1997 0ED9  
                     l1989 0ED1                       l1999 0EDA                       ?_isr 0070  
                     STR_1 0806                       STR_2 081C                       STR_3 0817  
                     STR_4 081B                       u2000 037A                       u1200 0E52  
                     u2001 0379                       u1201 0E51                       u2010 06F5  
                     u2011 06F4                       u1300 0CC5                       u2100 0772  
                     u2020 06F9                       u1220 0E66                       u1301 0CC4  
                     u2101 0771                       u2021 06F8                       u1221 0E65  
                     u2110 0776                       u2030 0719                       u2111 0775  
                     u2031 0718                       u1215 0E57                       u1400 0DE3  
                     u2120 078B                       u1240 0E81                       u1401 0DE2  
                     u1241 0E80                       u1330 0CDF                       u1410 0D1D  
                     u2130 079B                       u2050 073A                       u1331 0CDE  
                     u1315 0CCC                       u1411 0D1C                       u2131 079A  
                     u2051 0739                       u1235 0E68                       u1340 0DAC  
                     u2140 079F                       u1260 0E9F                       u1500 0F01  
                     u1341 0DAB                       u1325 0CD3                       u2141 079E  
                     u2125 0786                       u2045 072C                       u1261 0E9E  
                     u1245 0E7D                       u1501 0F00                       u1430 0D31  
                     u2070 075C                       u1510 0C43                       u1270 0D7F  
                     u1431 0D30                       u2071 075B                       u1511 0C42  
                     u1255 0E91                       u1280 0C24                       u1440 0D59  
                     u1360 0DBE                       u1600 0FDE                       u1281 0C23  
                     u1441 0D58                       u1361 0DBD                       u1425 0D24  
                     u1601 0FDD                       u2065 074E                       u1290 0C2A  
                     u1450 0DF0                       u2090 076C                       u1291 0C29  
                     u1451 0DEF                       u1355 0DB0                       u2091 076B  
                     u1275 0D7A                       u1380 0DCF                       u1700 008D  
                     u1620 0FEF                       u1540 0F91                       u2340 045C  
                     u1381 0DCE                       u1701 008C                       u1621 0FEE  
                     u1541 0F90                       u2085 0761                       u2341 045B  
                     u1470 0E1B                       u1710 0092                       u1630 0FF4  
                     u1550 0FA8                       u2350 04CB                       u1471 0E1A  
                     u1375 0DBF                       u1711 0091                       u1631 0FF3  
                     u1615 0FE1                       u2351 04CA                       u2407 0415  
                     u1640 003F                       u1560 0FBE                       u2360 04DA  
                     u1465 0DF8                       u1385 0DCB                       u1801 01E0  
                     u1721 00E3                       u1641 003E                       u1561 0FBD  
                     u2361 04D9                       u2417 044E                       u1490 0D0C  
                     u1802 01E7                       u1722 00EA                       u1650 0045  
                     u1570 0FC5                       u2370 0577                       u1491 0D0B  
                     u1395 0DD7                       u1811 020D                       u1803 01EE  
                     u1731 00FF                       u1723 00F1                       u1651 0044  
                     u1571 0FC4                       u1555 0FA3                       u2427 0CA7  
                     u2371 0576                       u1812 0214                       u1732 0106  
                     u1660 004A                       u2380 0580                       u1485 0E23  
                     u2437 0C95                       u1821 023A                       u1813 021B  
                     u1741 012B                       u1733 010D                       u1661 0049  
                     u2381 057F                       u1910 02DE                       u1830 0264  
                     u1822 0241                       u1742 0132                       u1670 006B  
                     u1590 0FD7                       u2447 07B5                       u1911 02DD  
                     u1823 0248                       u1751 0147                       u1743 0139  
                     u1671 006A                       u1591 0FD6                       u1920 02E3  
                     u1752 014E                       u1680 0071                       u2457 07C6  
                     u1921 02E2                       u1905 02CD                       u1841 0270  
                     u1753 0155                       u1681 0070                       u1585 0FC7  
                     u1930 02F7                       u1850 028C                       u1842 0277  
                     u1690 0076                       u2467 07D5                       u1931 02F6  
                     u1843 027E                       u1835 025F                       u1771 017D  
                     u1691 0075                       u1940 02FE                       u1772 0184  
                     u2477 0C73                       u1941 02FD                       u1861 0298  
                     u1781 01AA                       u1773 018B                       u1765 0157  
                     u2397 03DB                       u1950 0304                       u1862 029F  
                     u1782 01B1                       u1951 0303                       u1863 02A6  
                     u1855 0287                       u1783 01B8                       u1960 0316  
                     u1961 0315                       u1970 0325                       u1890 02CA  
                     u1891 02C9                       u1875 02A8                       u1795 01BA  
                     _PEIE 005E                       u1980 0342                       u1981 0341  
                     u1885 02BF                       u1990 035C                       u1991 035B  
                     u1975 0320                       u1985 033E                       u1995 0358  
                     _POS1 006E                       _POS2 006D                       _POS3 006C  
                     _TEMP 00A2                       _TMR0 0001                       _TXIE 0464  
                     _TXIF 0064          ?_Lcd_Write_String 0070                       _cont 005E  
                     _main 038F                       _guia 007C                       btemp 007E  
                     start 000E         ??_Lcd_Write_String 0025            __end_of_Lcd_Cmd 0C7C  
        ___bmul@multiplier 0073                      ??_VAL 002A                      ??_isr 0074  
         ?_I2C_Master_Init 002E           ?_I2C_Master_Read 0020           ?_I2C_Master_Wait 0070  
         ?_I2C_Master_Stop 0070              ___fltol@sign1 0051                      ?_main 0070  
          _contador_decena 005F            __end_of___flmul 038F            __end_of___fltol 1000  
                    _ANSEL 0188            __end_of___lldiv 0EA8            __end_of___lwdiv 0DE8  
                    i1l300 06E3                      i1l306 06E4                      i1l270 05B1  
                    i1l266 0656                      i1l467 0C5F    __end_of_moverVentilador 0C4B  
                    _RCREG 001A                      _SPBRG 0099                      _PORTA 0005  
                    _PORTB 0006                      _PORTC 0007                      _PORTD 0008  
                    _PORTE 0009    __size_of_Lcd_Set_Cursor 0058                      _TRISA 0085  
                    _TRISB 0086                      _TRISD 0088                      _SSPIE 0463  
                    _TRISE 0089                      _SSPIF 0063                      _TXREG 0019  
          _contador_unidad 0060                      _setup 0EA8                      pclath 000A  
                    status 0003                      wtemp0 007E           __end_of_Lcd_Init 07F7  
         __end_of_Lcd_Port 0C03            __initialization 0011               __end_of_main 058B  
                   ??_main 0053         __size_of_Lcd_Clear 000D          ?_I2C_Master_Start 0070  
        ?_I2C_Master_Write 0020         ??_I2C_Master_Start 0020         ??_I2C_Master_Write 0022  
                   _CCPR1L 0015                     _CCPR2L 001B                     ?_setup 0070  
         _contador_centena 00A4                     _ANSELH 0189                     i1l2061 0C55  
                   i1l2301 0595                     i1l2063 0C57                     i1l2055 0C4C  
                   i1l2311 05AA                     i1l2303 0596                     i1l2065 0C5E  
                   i1l2057 0C4D                     i1l2401 06CB                     i1l2321 05C3  
                   i1l2313 05AF                     i1l2305 059C                     i1l2059 0C51  
                   i1l2411 06E1                     i1l2403 06D1                     i1l2323 05C8  
                   i1l2315 05B4                     i1l2307 05A2                     i1l2405 06D4  
                   i1l2413 06E3                     i1l2341 0612                     i1l2325 05CD  
                   i1l2317 05B9                     i1l2333 05DC                     i1l2309 05A4  
                   i1l2407 06D9                     i1l2351 062F                     i1l2343 0615  
                   i1l2327 05D2                     i1l2319 05BE                     i1l2335 0604  
                   i1l2409 06DF                     i1l2345 061A                     i1l2353 0632  
                   i1l2337 0609                     i1l2329 05D7                     i1l2361 0656  
                   i1l2371 0669                     i1l2363 065A                     i1l2355 0637  
                   i1l2347 062A                     i1l2339 0611                     i1l2381 068A  
                   i1l2373 0670                     i1l2365 065F                     i1l2349 062E  
                   i1l2391 06AA                     i1l2383 0690                     i1l2375 0676  
                   i1l2367 0661                     i1l2393 06B1                     i1l2385 0697  
                   i1l2377 067D                     i1l2369 0664                     i1l2297 058B  
                   i1l2395 06B7                     i1l2387 069D                     i1l2379 0683  
                   i1l2299 058F                     i1l2397 06BE                     i1l2389 06A4  
                   i1l2581 05E4                     i1l2399 06C4                     u220_20 061A  
                   u220_21 0619                     u221_20 0637                     u221_21 0636  
                   u230_20 06B7                     u222_20 065A                     u230_21 06B6  
                   u222_21 0659                     u231_20 06C4                     u223_20 065F  
                   u215_20 058F                     u231_21 06C3                     u223_21 065E  
                   u215_21 058E                     u152_20 0C51                     u232_20 06D1  
                   u224_20 0669                     u216_20 059C                     u152_21 0C50  
                   u232_21 06D0                     u224_21 0668                     u216_21 059B  
                   u153_20 0C5E                     u233_20 06DF                     u225_20 0676  
                   u217_20 05A2                     u153_21 0C5D                     u233_21 06DE  
                   u225_21 0675                     u217_21 05A1                     u226_20 0683  
                   u218_20 05AA                     u226_21 0682                     u218_21 05A9  
                   u227_20 0690                     u219_20 0609                     u227_21 068F  
                   u219_21 0608                     u228_20 069D                     u228_21 069C  
                   u229_20 06AA                     u229_21 06A9                  ??_Lcd_Cmd 0021  
                   _SPBRGH 009A    __size_of_Lcd_Write_Char 0020                     _SSPADD 0093  
                   _TRISC3 043B                     _TRISC4 043C                     _SSPCON 0014  
                   _SSPBUF 0013           __end_of___xxtofl 07A9                     ___bmul 0C4B  
                   _c_flag 005B                     _d_flag 005C                     ___wmul 0CBD  
                   _decena 0059                  ??___flmul 0036                     _alarma 0063  
                ??___fltol 004C                  ??___lldiv 0028                  ??___lwdiv 0024  
                   _u_flag 006F                     _unidad 005A           ?_moverVentilador 0070  
       __size_of__Umul8_16 0029      __size_of_alarmaBuzzer 0021                     saved_w 007E  
          Lcd_Set_Cursor@a 0027            Lcd_Set_Cursor@b 0024            Lcd_Set_Cursor@y 0029  
          Lcd_Set_Cursor@z 0028               ___xxtofl@arg 002A               ___xxtofl@exp 0029  
             ___xxtofl@val 0020    __end_of__initialization 002A          __end_of_Lcd_Clear 0C38  
               ___fltol@f1 0048        ___bmul@multiplicand 0070             __pcstackCOMMON 0070  
             __pidataBANK0 0003               _alarmaBuzzer 0C9C              __end_of_setup 0F10  
           _Lcd_Set_Cursor 0DE8             _OPTION_REGbits 0081                  ?_Lcd_Init 0070  
                ?_Lcd_Port 0070                    ??_setup 0036                 __pbssBANK0 0056  
               __pbssBANK1 00A0          __end_of__Umul8_16 0D36                 __pmaintext 038F  
                  ?___bmul 0070                    ?___wmul 0020                 __pintentry 0004  
__size_of_Lcd_Write_String 0029     __end_of_Lcd_Set_Cursor 0E40                  ?___xxtofl 0020  
                  _POS1_BZ 0066                    _POS2_BZ 0065                    _POS3_BZ 0064  
               ??_Lcd_Init 0024                 ??_Lcd_Port 0020                    _SSPCON2 0091  
                  _SSPSTAT 0094                 __stringtab 0800                    _RC_temp 0062  
           _Lcd_Write_Char 0C7C                    _Lcd_Cmd 0C60                VAL@variable 0028  
                  _T_byte1 00A0            __size_of___bmul 0015                    ___flmul 002E  
                  ___fltol 0F84                    ___lldiv 0E40            __size_of___wmul 0027  
                  ___lwdiv 0DA2            ?_Lcd_Set_Cursor 0024                    __ptext1 0EA8  
                  __ptext2 0D68                    __ptext3 0E40                    __ptext4 0C38  
                  __ptext5 0C9C                    __ptext6 06ED                    __ptext7 0F84  
                  __ptext8 002E                    __ptext9 0D0D               __size_of_VAL 0074  
                _T2CONbits 0012               __size_of_isr 0162                 ??___xxtofl 0024  
 __size_of_I2C_Master_Init 003A   __size_of_I2C_Master_Read 0032   __size_of_I2C_Master_Wait 000D  
 __size_of_I2C_Master_Stop 0009                    clrloop0 0C04     __end_of_Lcd_Write_Char 0C9C  
     end_of_initialization 002A  __size_of_I2C_Master_Start 0009  __size_of_I2C_Master_Write 000A  
          ___lldiv@divisor 0020            ___lldiv@counter 002D                  _RCSTAbits 0018  
         I2C_Master_Init@c 002E           I2C_Master_Read@a 0020                  Lcd_Port@a 0020  
                _PORTAbits 0005                  _PORTBbits 0006              ___xxtofl@sign 0028  
                _TRISCbits 0087            ?_Lcd_Write_Char 0070          Lcd_Write_String@a 0027  
        Lcd_Write_String@i 0025                ___flmul@grs 003C                _CCP1CONbits 0017  
              _CCP2CONbits 001D                  _TXSTAbits 0098                  _Lcd_Clear 0C2B  
           __end_of___bmul 0C60             __end_of___wmul 0CE4           _Lcd_Write_String 0CE4  
              _BAUDCTLbits 0187        start_initialization 0011                __end_of_VAL 0F84  
              __end_of_isr 06ED   __size_of_moverVentilador 0013          __size_of_Lcd_Init 004E  
        __size_of_Lcd_Port 0006          ??_I2C_Master_Init 0032          ??_I2C_Master_Read 0022  
        ??_I2C_Master_Wait 0020          ??_I2C_Master_Stop 0020                 ?_Lcd_Clear 0070  
                 ??___bmul 0071                   ??___wmul 0024                  __Umul8_16 0D0D  
              __pdataBANK0 006F            Lcd_Write_Char@a 0022            Lcd_Write_Char@y 0024  
                ___flmul@a 0032                  ___flmul@b 002E                __pbssCOMMON 007B  
                ___latbits 0002              __pcstackBANK0 0020          __size_of___xxtofl 00BC  
                 ?_Lcd_Cmd 0070           _I2C_Master_Start 0C0B           _I2C_Master_Write 0C14  
         ___lwdiv@dividend 0022           ??_Lcd_Set_Cursor 0025                   VAL@valor 002C  
                 ?___flmul 002E                   ?___fltol 0048                   ?___lldiv 0020  
               ?__Umul8_16 0020                   ?___lwdiv 0020                  __pstrings 0800  
         ___lwdiv@quotient 0025             __size_of_setup 0068                  _val_USART 007B  
        interrupt_function 0004             ___wmul@product 0024                  clear_ram0 0C03  
        ??_moverVentilador 0020                   Lcd_Cmd@a 0023                   _PIR1bits 000C  
                _valor_ADC 0056                   _POS1_LDR 007D                   _POS2_LDR 006B  
                 _POS3_LDR 006A                   _POS1_TMP 0069                   _POS2_TMP 0068  
                 _POS3_TMP 0067                ??_Lcd_Clear 0024             _bandera_buzzer 005D  
              __stringbase 0805          ___wmul@multiplier 0020           ??_Lcd_Write_Char 0021  
                 _Lcd_Init 07A9                   _Lcd_Port 0BFD        I2C_Master_Read@temp 0024  
 __end_of_Lcd_Write_String 0D0D           __size_of_Lcd_Cmd 001C                ??__Umul8_16 0022  
            ?_alarmaBuzzer 0070           __size_of___flmul 0361           __size_of___fltol 007C  
         __size_of___lldiv 0068           __size_of___lwdiv 0046         __end_of__stringtab 0806  
          _I2C_Master_Init 0D68            _I2C_Master_Read 0D36                   ___xxtofl 06ED  
          _I2C_Master_Wait 0C1E            _I2C_Master_Stop 07F7            ___lwdiv@divisor 0020  
          ___lwdiv@counter 0027                   __ptext10 0F10                   __ptext11 0CBD  
                 __ptext20 0C14                   __ptext12 0DA2                   __ptext21 07F7  
                 __ptext13 0CE4                   __ptext22 0C0B                   __ptext14 0C7C  
                 __ptext23 0D36                   __ptext15 0DE8                   __ptext24 0C1E  
                 __ptext16 07A9                   __ptext25 058B                   __ptext17 0C2B  
                 __ptext26 0C4B                   __ptext18 0C60                   __ptext19 0BFD  
                 _contador 0061              __size_of_main 01FC             ??_alarmaBuzzer 0020  
 __end_of_I2C_Master_Start 0C14   __end_of_I2C_Master_Write 0C1E                 _INTCONbits 000B  
       Lcd_Write_Char@temp 0023                   intlevel1 0000           ___lldiv@dividend 0024  
                stringcode 0800                 _OSCCONbits 008F    __end_of_I2C_Master_Init 0DA2  
  __end_of_I2C_Master_Read 0D68    __end_of_I2C_Master_Wait 0C2B    __end_of_I2C_Master_Stop 0800  
       Lcd_Set_Cursor@temp 002A                _valor_Servo 0058     __Umul8_16@multiplicand 0020  
         ___lldiv@quotient 0029          I2C_Master_Write@d 0020                   stringdir 0800  
                 stringtab 0800                _SSPCON2bits 0091            _moverVentilador 0C38  
     __Umul8_16@multiplier 0028          __Umul8_16@product 0024  
