

Microchip MPLAB XC8 Assembler V2.31 build 20201012212115 
                                                                                               Wed Aug 25 00:08:39 2021

Microchip MPLAB XC8 C Compiler v2.31 (Free license) build 20201012212115 Og1 
     1                           	processor	16F887
     2                           	pagewidth 120
     3                           	opt	flic
     4                           	psect	strings,global,class=STRING,delta=2,noexec
     5                           	psect	cinit,global,class=CODE,merge=1,delta=2
     6                           	psect	bssBANK0,global,class=BANK0,space=1,delta=1,noexec
     7                           	psect	cstackCOMMON,global,class=COMMON,space=1,delta=1,noexec
     8                           	psect	cstackBANK0,global,class=BANK0,space=1,delta=1,noexec
     9                           	psect	maintext,global,class=CODE,split=1,delta=2
    10                           	psect	text1,local,class=CODE,merge=1,delta=2
    11                           	psect	text2,local,class=CODE,merge=1,delta=2
    12                           	psect	text3,local,class=CODE,merge=1,delta=2,group=1
    13                           	psect	text4,local,class=CODE,merge=1,delta=2
    14                           	psect	text5,local,class=CODE,merge=1,delta=2
    15                           	psect	text6,local,class=CODE,merge=1,delta=2,group=1
    16                           	psect	text7,local,class=CODE,merge=1,delta=2,group=1
    17                           	psect	text8,local,class=CODE,merge=1,delta=2,group=1
    18                           	psect	text9,local,class=CODE,merge=1,delta=2,group=1
    19                           	psect	text10,local,class=CODE,merge=1,delta=2
    20                           	psect	text11,local,class=CODE,merge=1,delta=2,group=1
    21                           	psect	text12,local,class=CODE,merge=1,delta=2,group=1
    22                           	psect	text13,local,class=CODE,merge=1,delta=2
    23                           	psect	text14,local,class=CODE,merge=1,delta=2
    24                           	psect	text15,local,class=CODE,merge=1,delta=2
    25                           	psect	text16,local,class=CODE,merge=1,delta=2
    26                           	psect	text17,local,class=CODE,merge=1,delta=2
    27                           	psect	text18,local,class=CODE,merge=1,delta=2
    28                           	psect	text19,local,class=CODE,merge=1,delta=2
    29                           	psect	text20,local,class=CODE,merge=1,delta=2
    30                           	psect	text21,local,class=CODE,merge=1,delta=2
    31                           	psect	text22,local,class=CODE,merge=1,delta=2
    32                           	psect	text23,local,class=CODE,merge=1,delta=2
    33                           	psect	text24,local,class=CODE,merge=1,delta=2
    34                           	psect	text25,local,class=CODE,merge=1,delta=2
    35                           	psect	intentry,global,class=CODE,delta=2
    36                           	psect	config,global,abs,ovrld,class=CONFIG,space=4,delta=2,noexec
    37                           	dabs	1,0x7E,2
    38  0000                     
    39                           ; Version 2.20
    40                           ; Generated 12/02/2020 GMT
    41                           ; 
    42                           ; Copyright © 2020, Microchip Technology Inc. and its subsidiaries ("Microchip")
    43                           ; All rights reserved.
    44                           ; 
    45                           ; This software is developed by Microchip Technology Inc. and its subsidiaries ("Microch
      +                          ip").
    46                           ; 
    47                           ; Redistribution and use in source and binary forms, with or without modification, are
    48                           ; permitted provided that the following conditions are met:
    49                           ; 
    50                           ;     1. Redistributions of source code must retain the above copyright notice, this lis
      +                          t of
    51                           ;        conditions and the following disclaimer.
    52                           ; 
    53                           ;     2. Redistributions in binary form must reproduce the above copyright notice, this 
      +                          list
    54                           ;        of conditions and the following disclaimer in the documentation and/or other
    55                           ;        materials provided with the distribution.
    56                           ; 
    57                           ;     3. Microchip's name may not be used to endorse or promote products derived from th
      +                          is
    58                           ;        software without specific prior written permission.
    59                           ; 
    60                           ; THIS SOFTWARE IS PROVIDED BY MICROCHIP "AS IS" AND ANY EXPRESS OR IMPLIED WARRANTIES,
    61                           ; INCLUDING, BUT NOT LIMITED TO, THE IMPLIED WARRANTIES OF MERCHANTABILITY AND FITNESS F
      +                          OR
    62                           ; PURPOSE ARE DISCLAIMED.  IN NO EVENT SHALL MICROCHIP BE LIABLE FOR ANY DIRECT, INDIREC
      +                          T,
    63                           ; INCIDENTAL, SPECIAL, EXEMPLARY, OR CONSEQUENTIAL DAMAGES (INCLUDING BUT NOT LIMITED TO
    64                           ; PROCUREMENT OF SUBSTITUTE GOODS OR SERVICES; LOSS OF USE, DATA OR PROFITS; OR BUSINESS
    65                           ; INTERRUPTION) HOWSOEVER CAUSED AND ON ANY THEORY OF LIABILITY, WHETHER IN CONTRACT, ST
      +                          RICT
    66                           ; LIABILITY, OR TORT (INCLUDING NEGLIGENCE OR OTHERWISE) ARISING IN ANY WAY OUT OF THE U
      +                          SE OF
    67                           ; THIS SOFTWARE, EVEN IF ADVISED OF THE POSSIBILITY OF SUCH DAMAGE.
    68                           ; 
    69                           ; 
    70                           ; Code-generator required, PIC16F887 Definitions
    71                           ; 
    72                           ; SFR Addresses
    73  0000                     	;# 
    74  0001                     	;# 
    75  0002                     	;# 
    76  0003                     	;# 
    77  0004                     	;# 
    78  0005                     	;# 
    79  0006                     	;# 
    80  0007                     	;# 
    81  0008                     	;# 
    82  0009                     	;# 
    83  000A                     	;# 
    84  000B                     	;# 
    85  000C                     	;# 
    86  000D                     	;# 
    87  000E                     	;# 
    88  000E                     	;# 
    89  000F                     	;# 
    90  0010                     	;# 
    91  0011                     	;# 
    92  0012                     	;# 
    93  0013                     	;# 
    94  0014                     	;# 
    95  0015                     	;# 
    96  0015                     	;# 
    97  0016                     	;# 
    98  0017                     	;# 
    99  0018                     	;# 
   100  0019                     	;# 
   101  001A                     	;# 
   102  001B                     	;# 
   103  001B                     	;# 
   104  001C                     	;# 
   105  001D                     	;# 
   106  001E                     	;# 
   107  001F                     	;# 
   108  0081                     	;# 
   109  0085                     	;# 
   110  0086                     	;# 
   111  0087                     	;# 
   112  0088                     	;# 
   113  0089                     	;# 
   114  008C                     	;# 
   115  008D                     	;# 
   116  008E                     	;# 
   117  008F                     	;# 
   118  0090                     	;# 
   119  0091                     	;# 
   120  0092                     	;# 
   121  0093                     	;# 
   122  0093                     	;# 
   123  0093                     	;# 
   124  0094                     	;# 
   125  0095                     	;# 
   126  0096                     	;# 
   127  0097                     	;# 
   128  0098                     	;# 
   129  0099                     	;# 
   130  009A                     	;# 
   131  009B                     	;# 
   132  009C                     	;# 
   133  009D                     	;# 
   134  009E                     	;# 
   135  009F                     	;# 
   136  0105                     	;# 
   137  0107                     	;# 
   138  0108                     	;# 
   139  0109                     	;# 
   140  010C                     	;# 
   141  010C                     	;# 
   142  010D                     	;# 
   143  010E                     	;# 
   144  010F                     	;# 
   145  0185                     	;# 
   146  0187                     	;# 
   147  0188                     	;# 
   148  0189                     	;# 
   149  018C                     	;# 
   150  018D                     	;# 
   151  0000                     	;# 
   152  0001                     	;# 
   153  0002                     	;# 
   154  0003                     	;# 
   155  0004                     	;# 
   156  0005                     	;# 
   157  0006                     	;# 
   158  0007                     	;# 
   159  0008                     	;# 
   160  0009                     	;# 
   161  000A                     	;# 
   162  000B                     	;# 
   163  000C                     	;# 
   164  000D                     	;# 
   165  000E                     	;# 
   166  000E                     	;# 
   167  000F                     	;# 
   168  0010                     	;# 
   169  0011                     	;# 
   170  0012                     	;# 
   171  0013                     	;# 
   172  0014                     	;# 
   173  0015                     	;# 
   174  0015                     	;# 
   175  0016                     	;# 
   176  0017                     	;# 
   177  0018                     	;# 
   178  0019                     	;# 
   179  001A                     	;# 
   180  001B                     	;# 
   181  001B                     	;# 
   182  001C                     	;# 
   183  001D                     	;# 
   184  001E                     	;# 
   185  001F                     	;# 
   186  0081                     	;# 
   187  0085                     	;# 
   188  0086                     	;# 
   189  0087                     	;# 
   190  0088                     	;# 
   191  0089                     	;# 
   192  008C                     	;# 
   193  008D                     	;# 
   194  008E                     	;# 
   195  008F                     	;# 
   196  0090                     	;# 
   197  0091                     	;# 
   198  0092                     	;# 
   199  0093                     	;# 
   200  0093                     	;# 
   201  0093                     	;# 
   202  0094                     	;# 
   203  0095                     	;# 
   204  0096                     	;# 
   205  0097                     	;# 
   206  0098                     	;# 
   207  0099                     	;# 
   208  009A                     	;# 
   209  009B                     	;# 
   210  009C                     	;# 
   211  009D                     	;# 
   212  009E                     	;# 
   213  009F                     	;# 
   214  0105                     	;# 
   215  0107                     	;# 
   216  0108                     	;# 
   217  0109                     	;# 
   218  010C                     	;# 
   219  010C                     	;# 
   220  010D                     	;# 
   221  010E                     	;# 
   222  010F                     	;# 
   223  0185                     	;# 
   224  0187                     	;# 
   225  0188                     	;# 
   226  0189                     	;# 
   227  018C                     	;# 
   228  018D                     	;# 
   229  0000                     	;# 
   230  0001                     	;# 
   231  0002                     	;# 
   232  0003                     	;# 
   233  0004                     	;# 
   234  0005                     	;# 
   235  0006                     	;# 
   236  0007                     	;# 
   237  0008                     	;# 
   238  0009                     	;# 
   239  000A                     	;# 
   240  000B                     	;# 
   241  000C                     	;# 
   242  000D                     	;# 
   243  000E                     	;# 
   244  000E                     	;# 
   245  000F                     	;# 
   246  0010                     	;# 
   247  0011                     	;# 
   248  0012                     	;# 
   249  0013                     	;# 
   250  0014                     	;# 
   251  0015                     	;# 
   252  0015                     	;# 
   253  0016                     	;# 
   254  0017                     	;# 
   255  0018                     	;# 
   256  0019                     	;# 
   257  001A                     	;# 
   258  001B                     	;# 
   259  001B                     	;# 
   260  001C                     	;# 
   261  001D                     	;# 
   262  001E                     	;# 
   263  001F                     	;# 
   264  0081                     	;# 
   265  0085                     	;# 
   266  0086                     	;# 
   267  0087                     	;# 
   268  0088                     	;# 
   269  0089                     	;# 
   270  008C                     	;# 
   271  008D                     	;# 
   272  008E                     	;# 
   273  008F                     	;# 
   274  0090                     	;# 
   275  0091                     	;# 
   276  0092                     	;# 
   277  0093                     	;# 
   278  0093                     	;# 
   279  0093                     	;# 
   280  0094                     	;# 
   281  0095                     	;# 
   282  0096                     	;# 
   283  0097                     	;# 
   284  0098                     	;# 
   285  0099                     	;# 
   286  009A                     	;# 
   287  009B                     	;# 
   288  009C                     	;# 
   289  009D                     	;# 
   290  009E                     	;# 
   291  009F                     	;# 
   292  0105                     	;# 
   293  0107                     	;# 
   294  0108                     	;# 
   295  0109                     	;# 
   296  010C                     	;# 
   297  010C                     	;# 
   298  010D                     	;# 
   299  010E                     	;# 
   300  010F                     	;# 
   301  0185                     	;# 
   302  0187                     	;# 
   303  0188                     	;# 
   304  0189                     	;# 
   305  018C                     	;# 
   306  018D                     	;# 
   307  0000                     	;# 
   308  0001                     	;# 
   309  0002                     	;# 
   310  0003                     	;# 
   311  0004                     	;# 
   312  0005                     	;# 
   313  0006                     	;# 
   314  0007                     	;# 
   315  0008                     	;# 
   316  0009                     	;# 
   317  000A                     	;# 
   318  000B                     	;# 
   319  000C                     	;# 
   320  000D                     	;# 
   321  000E                     	;# 
   322  000E                     	;# 
   323  000F                     	;# 
   324  0010                     	;# 
   325  0011                     	;# 
   326  0012                     	;# 
   327  0013                     	;# 
   328  0014                     	;# 
   329  0015                     	;# 
   330  0015                     	;# 
   331  0016                     	;# 
   332  0017                     	;# 
   333  0018                     	;# 
   334  0019                     	;# 
   335  001A                     	;# 
   336  001B                     	;# 
   337  001B                     	;# 
   338  001C                     	;# 
   339  001D                     	;# 
   340  001E                     	;# 
   341  001F                     	;# 
   342  0081                     	;# 
   343  0085                     	;# 
   344  0086                     	;# 
   345  0087                     	;# 
   346  0088                     	;# 
   347  0089                     	;# 
   348  008C                     	;# 
   349  008D                     	;# 
   350  008E                     	;# 
   351  008F                     	;# 
   352  0090                     	;# 
   353  0091                     	;# 
   354  0092                     	;# 
   355  0093                     	;# 
   356  0093                     	;# 
   357  0093                     	;# 
   358  0094                     	;# 
   359  0095                     	;# 
   360  0096                     	;# 
   361  0097                     	;# 
   362  0098                     	;# 
   363  0099                     	;# 
   364  009A                     	;# 
   365  009B                     	;# 
   366  009C                     	;# 
   367  009D                     	;# 
   368  009E                     	;# 
   369  009F                     	;# 
   370  0105                     	;# 
   371  0107                     	;# 
   372  0108                     	;# 
   373  0109                     	;# 
   374  010C                     	;# 
   375  010C                     	;# 
   376  010D                     	;# 
   377  010E                     	;# 
   378  010F                     	;# 
   379  0185                     	;# 
   380  0187                     	;# 
   381  0188                     	;# 
   382  0189                     	;# 
   383  018C                     	;# 
   384  018D                     	;# 
   385  0005                     _PORTAbits	set	5
   386  0009                     _PORTE	set	9
   387  0007                     _PORTC	set	7
   388  0006                     _PORTB	set	6
   389  0005                     _PORTA	set	5
   390  000B                     _INTCONbits	set	11
   391  0008                     _PORTD	set	8
   392  0013                     _SSPBUF	set	19
   393  0014                     _SSPCON	set	20
   394  0049                     _RE1	set	73
   395  0048                     _RE0	set	72
   396  0063                     _SSPIF	set	99
   397  005E                     _PEIE	set	94
   398  005F                     _GIE	set	95
   399  008F                     _OSCCONbits	set	143
   400  0086                     _TRISB	set	134
   401  0089                     _TRISE	set	137
   402  0088                     _TRISD	set	136
   403  0085                     _TRISA	set	133
   404  0091                     _SSPCON2bits	set	145
   405  0087                     _TRISCbits	set	135
   406  0094                     _SSPSTAT	set	148
   407  0093                     _SSPADD	set	147
   408  0091                     _SSPCON2	set	145
   409  0463                     _SSPIE	set	1123
   410  043C                     _TRISC4	set	1084
   411  043B                     _TRISC3	set	1083
   412  0189                     _ANSELH	set	393
   413  0188                     _ANSEL	set	392
   414                           
   415                           	psect	strings
   416  0800                     __pstrings:
   417  0800                     stringtab:
   418  0800                     __stringtab:
   419  0800                     stringcode:	
   420                           ;	String table - string pointers are 1 byte each
   421                           
   422  0800                     stringdir:
   423  0800  3008               	movlw	high stringdir
   424  0801  008A               	movwf	10
   425  0802  0804               	movf	4,w
   426  0803  0A84               	incf	4,f
   427  0804  0782               	addwf	2,f
   428  0805                     __stringbase:
   429  0805  3400               	retlw	0
   430  0806                     __end_of__stringtab:
   431  0806                     STR_1:
   432  0806  3420               	retlw	32	;' '
   433  0807  3453               	retlw	83	;'S'
   434  0808  3431               	retlw	49	;'1'
   435  0809  343A               	retlw	58	;':'
   436  080A  3420               	retlw	32	;' '
   437  080B  3420               	retlw	32	;' '
   438  080C  3420               	retlw	32	;' '
   439  080D  3453               	retlw	83	;'S'
   440  080E  3432               	retlw	50	;'2'
   441  080F  343A               	retlw	58	;':'
   442  0810  3420               	retlw	32	;' '
   443  0811  3420               	retlw	32	;' '
   444  0812  3420               	retlw	32	;' '
   445  0813  3453               	retlw	83	;'S'
   446  0814  3433               	retlw	51	;'3'
   447  0815  343A               	retlw	58	;':'
   448  0816  3400               	retlw	0
   449  0817                     STR_3:
   450  0817  34DF               	retlw	-33
   451  0818  3443               	retlw	67	;'C'
   452  0819  3420               	retlw	32	;' '
   453  081A  3420               	retlw	32	;' '
   454  081B  3400               	retlw	0
   455  081C                     STR_2:
   456  081C  3476               	retlw	118	;'v'
   457  081D  3420               	retlw	32	;' '
   458  081E  3400               	retlw	0
   459  081B                     
   460                           	psect	cinit
   461  000F                     start_initialization:	
   462                           ; #config settings
   463                           
   464  000F                     __initialization:
   465                           
   466                           ; Clear objects allocated to BANK0
   467  000F  1283               	bcf	3,5	;RP0=0, select bank0
   468  0010  1303               	bcf	3,6	;RP1=0, select bank0
   469  0011  01CE               	clrf	__pbssBANK0& (0+127)
   470  0012  01CF               	clrf	(__pbssBANK0+1)& (0+127)
   471  0013  01D0               	clrf	(__pbssBANK0+2)& (0+127)
   472  0014  01D1               	clrf	(__pbssBANK0+3)& (0+127)
   473  0015  01D2               	clrf	(__pbssBANK0+4)& (0+127)
   474  0016  01D3               	clrf	(__pbssBANK0+5)& (0+127)
   475  0017  01D4               	clrf	(__pbssBANK0+6)& (0+127)
   476  0018  01D5               	clrf	(__pbssBANK0+7)& (0+127)
   477  0019  01D6               	clrf	(__pbssBANK0+8)& (0+127)
   478  001A  01D7               	clrf	(__pbssBANK0+9)& (0+127)
   479  001B                     end_of_initialization:	
   480                           ;End of C runtime variable initialization code
   481                           
   482  001B                     __end_of__initialization:
   483  001B  0183               	clrf	3
   484  001C  120A  118A  2B80   	ljmp	_main	;jump to C main() function
   485                           
   486                           	psect	bssBANK0
   487  004E                     __pbssBANK0:
   488  004E                     _T_byte1:
   489  004E                     	ds	2
   490  0050                     _TEMP:
   491  0050                     	ds	2
   492  0052                     _valor_ADC:
   493  0052                     	ds	2
   494  0054                     _alarma:
   495  0054                     	ds	1
   496  0055                     _POS3:
   497  0055                     	ds	1
   498  0056                     _POS2:
   499  0056                     	ds	1
   500  0057                     _POS1:
   501  0057                     	ds	1
   502                           
   503                           	psect	cstackCOMMON
   504  0070                     __pcstackCOMMON:
   505  0070                     ?_setup:
   506  0070                     ?_moverVentilador:	
   507                           ; 1 bytes @ 0x0
   508                           
   509  0070                     ?_alarmaBuzzer:	
   510                           ; 1 bytes @ 0x0
   511                           
   512  0070                     ?_I2C_Master_Wait:	
   513                           ; 1 bytes @ 0x0
   514                           
   515  0070                     ?_I2C_Master_Start:	
   516                           ; 1 bytes @ 0x0
   517                           
   518  0070                     ?_I2C_Master_Stop:	
   519                           ; 1 bytes @ 0x0
   520                           
   521  0070                     ?_Lcd_Port:	
   522                           ; 1 bytes @ 0x0
   523                           
   524  0070                     ?_Lcd_Cmd:	
   525                           ; 1 bytes @ 0x0
   526                           
   527  0070                     ?_Lcd_Clear:	
   528                           ; 1 bytes @ 0x0
   529                           
   530  0070                     ?_Lcd_Init:	
   531                           ; 1 bytes @ 0x0
   532                           
   533  0070                     ?_Lcd_Write_Char:	
   534                           ; 1 bytes @ 0x0
   535                           
   536  0070                     ?_Lcd_Write_String:	
   537                           ; 1 bytes @ 0x0
   538                           
   539  0070                     ?_isr:	
   540                           ; 1 bytes @ 0x0
   541                           
   542  0070                     ??_isr:	
   543                           ; 1 bytes @ 0x0
   544                           
   545  0070                     ?_main:	
   546                           ; 1 bytes @ 0x0
   547                           
   548                           
   549                           ; 1 bytes @ 0x0
   550  0070                     	ds	2
   551  0072                     ??_moverVentilador:
   552  0072                     ??_alarmaBuzzer:	
   553                           ; 1 bytes @ 0x2
   554                           
   555  0072                     ??_I2C_Master_Wait:	
   556                           ; 1 bytes @ 0x2
   557                           
   558  0072                     ??_I2C_Master_Start:	
   559                           ; 1 bytes @ 0x2
   560                           
   561  0072                     ??_I2C_Master_Stop:	
   562                           ; 1 bytes @ 0x2
   563                           
   564  0072                     ?_I2C_Master_Write:	
   565                           ; 1 bytes @ 0x2
   566                           
   567  0072                     ??_Lcd_Port:	
   568                           ; 1 bytes @ 0x2
   569                           
   570  0072                     ?__Umul8_16:	
   571                           ; 1 bytes @ 0x2
   572                           
   573  0072                     ?_I2C_Master_Read:	
   574                           ; 2 bytes @ 0x2
   575                           
   576  0072                     ?___wmul:	
   577                           ; 2 bytes @ 0x2
   578                           
   579  0072                     ?___lwdiv:	
   580                           ; 2 bytes @ 0x2
   581                           
   582  0072                     ?___lldiv:	
   583                           ; 2 bytes @ 0x2
   584                           
   585  0072                     ?___xxtofl:	
   586                           ; 4 bytes @ 0x2
   587                           
   588  0072                     Lcd_Port@a:	
   589                           ; 4 bytes @ 0x2
   590                           
   591  0072                     __Umul8_16@multiplicand:	
   592                           ; 1 bytes @ 0x2
   593                           
   594  0072                     I2C_Master_Write@d:	
   595                           ; 1 bytes @ 0x2
   596                           
   597  0072                     I2C_Master_Read@a:	
   598                           ; 2 bytes @ 0x2
   599                           
   600  0072                     ___wmul@multiplier:	
   601                           ; 2 bytes @ 0x2
   602                           
   603  0072                     ___lwdiv@divisor:	
   604                           ; 2 bytes @ 0x2
   605                           
   606  0072                     ___lldiv@divisor:	
   607                           ; 2 bytes @ 0x2
   608                           
   609  0072                     ___xxtofl@val:	
   610                           ; 4 bytes @ 0x2
   611                           
   612                           
   613                           ; 4 bytes @ 0x2
   614  0072                     	ds	1
   615  0073                     ??_Lcd_Cmd:
   616  0073                     ??_Lcd_Write_Char:	
   617                           ; 1 bytes @ 0x3
   618                           
   619                           
   620                           ; 1 bytes @ 0x3
   621  0073                     	ds	1
   622  0074                     ??__Umul8_16:
   623  0074                     ??_I2C_Master_Write:	
   624                           ; 1 bytes @ 0x4
   625                           
   626  0074                     ??_I2C_Master_Read:	
   627                           ; 1 bytes @ 0x4
   628                           
   629  0074                     Lcd_Write_Char@a:	
   630                           ; 1 bytes @ 0x4
   631                           
   632  0074                     ___wmul@multiplicand:	
   633                           ; 1 bytes @ 0x4
   634                           
   635  0074                     ___lwdiv@dividend:	
   636                           ; 2 bytes @ 0x4
   637                           
   638                           
   639                           ; 2 bytes @ 0x4
   640  0074                     	ds	1
   641  0075                     Lcd_Cmd@a:
   642  0075                     Lcd_Write_Char@temp:	
   643                           ; 1 bytes @ 0x5
   644                           
   645                           
   646                           ; 1 bytes @ 0x5
   647  0075                     	ds	1
   648  0076                     ??_Lcd_Clear:
   649  0076                     ?_Lcd_Set_Cursor:	
   650                           ; 1 bytes @ 0x6
   651                           
   652  0076                     ??_Lcd_Init:	
   653                           ; 1 bytes @ 0x6
   654                           
   655  0076                     ??___wmul:	
   656                           ; 1 bytes @ 0x6
   657                           
   658  0076                     ??___lwdiv:	
   659                           ; 1 bytes @ 0x6
   660                           
   661  0076                     ??___xxtofl:	
   662                           ; 1 bytes @ 0x6
   663                           
   664  0076                     Lcd_Set_Cursor@b:	
   665                           ; 1 bytes @ 0x6
   666                           
   667  0076                     Lcd_Write_Char@y:	
   668                           ; 1 bytes @ 0x6
   669                           
   670  0076                     I2C_Master_Read@temp:	
   671                           ; 1 bytes @ 0x6
   672                           
   673  0076                     ___wmul@product:	
   674                           ; 2 bytes @ 0x6
   675                           
   676  0076                     __Umul8_16@product:	
   677                           ; 2 bytes @ 0x6
   678                           
   679  0076                     ___lldiv@dividend:	
   680                           ; 2 bytes @ 0x6
   681                           
   682                           
   683                           ; 4 bytes @ 0x6
   684  0076                     	ds	1
   685  0077                     ??_Lcd_Set_Cursor:
   686  0077                     ??_Lcd_Write_String:	
   687                           ; 1 bytes @ 0x7
   688                           
   689  0077                     Lcd_Write_String@i:	
   690                           ; 1 bytes @ 0x7
   691                           
   692  0077                     ___lwdiv@quotient:	
   693                           ; 2 bytes @ 0x7
   694                           
   695                           
   696                           ; 2 bytes @ 0x7
   697  0077                     	ds	1
   698  0078                     __Umul8_16@word_mpld:
   699                           
   700                           ; 2 bytes @ 0x8
   701  0078                     	ds	1
   702  0079                     Lcd_Write_String@a:
   703  0079                     ___lwdiv@counter:	
   704                           ; 1 bytes @ 0x9
   705                           
   706                           
   707                           ; 1 bytes @ 0x9
   708  0079                     	ds	1
   709  007A                     ?_VAL:
   710  007A                     ??___lldiv:	
   711                           ; 1 bytes @ 0xA
   712                           
   713  007A                     __Umul8_16@multiplier:	
   714                           ; 1 bytes @ 0xA
   715                           
   716  007A                     VAL@variable:	
   717                           ; 1 bytes @ 0xA
   718                           
   719                           
   720                           ; 2 bytes @ 0xA
   721  007A                     	ds	1
   722  007B                     ??_setup:
   723                           
   724                           ; 1 bytes @ 0xB
   725  007B                     	ds	1
   726                           
   727                           	psect	cstackBANK0
   728  0020                     __pcstackBANK0:
   729  0020                     ??_VAL:
   730  0020                     Lcd_Set_Cursor@a:	
   731                           ; 1 bytes @ 0x0
   732                           
   733  0020                     ___xxtofl@sign:	
   734                           ; 1 bytes @ 0x0
   735                           
   736  0020                     ___lldiv@quotient:	
   737                           ; 1 bytes @ 0x0
   738                           
   739                           
   740                           ; 4 bytes @ 0x0
   741  0020                     	ds	1
   742  0021                     Lcd_Set_Cursor@z:
   743  0021                     ___xxtofl@exp:	
   744                           ; 1 bytes @ 0x1
   745                           
   746                           
   747                           ; 1 bytes @ 0x1
   748  0021                     	ds	1
   749  0022                     Lcd_Set_Cursor@y:
   750  0022                     VAL@valor:	
   751                           ; 1 bytes @ 0x2
   752                           
   753  0022                     ___xxtofl@arg:	
   754                           ; 2 bytes @ 0x2
   755                           
   756                           
   757                           ; 4 bytes @ 0x2
   758  0022                     	ds	1
   759  0023                     Lcd_Set_Cursor@temp:
   760                           
   761                           ; 1 bytes @ 0x3
   762  0023                     	ds	1
   763  0024                     ___lldiv@counter:
   764                           
   765                           ; 1 bytes @ 0x4
   766  0024                     	ds	1
   767  0025                     ?_I2C_Master_Init:
   768  0025                     I2C_Master_Init@c:	
   769                           ; 1 bytes @ 0x5
   770                           
   771                           
   772                           ; 4 bytes @ 0x5
   773  0025                     	ds	1
   774  0026                     ?___flmul:
   775  0026                     ___flmul@b:	
   776                           ; 4 bytes @ 0x6
   777                           
   778                           
   779                           ; 4 bytes @ 0x6
   780  0026                     	ds	3
   781  0029                     ??_I2C_Master_Init:
   782                           
   783                           ; 1 bytes @ 0x9
   784  0029                     	ds	1
   785  002A                     ___flmul@a:
   786                           
   787                           ; 4 bytes @ 0xA
   788  002A                     	ds	4
   789  002E                     ??___flmul:
   790                           
   791                           ; 1 bytes @ 0xE
   792  002E                     	ds	5
   793  0033                     ___flmul@sign:
   794                           
   795                           ; 1 bytes @ 0x13
   796  0033                     	ds	1
   797  0034                     ___flmul@grs:
   798                           
   799                           ; 4 bytes @ 0x14
   800  0034                     	ds	4
   801  0038                     ___flmul@aexp:
   802                           
   803                           ; 1 bytes @ 0x18
   804  0038                     	ds	1
   805  0039                     ___flmul@bexp:
   806                           
   807                           ; 1 bytes @ 0x19
   808  0039                     	ds	1
   809  003A                     ___flmul@prod:
   810                           
   811                           ; 4 bytes @ 0x1A
   812  003A                     	ds	4
   813  003E                     ___flmul@temp:
   814                           
   815                           ; 2 bytes @ 0x1E
   816  003E                     	ds	2
   817  0040                     ?___fltol:
   818  0040                     ___fltol@f1:	
   819                           ; 4 bytes @ 0x20
   820                           
   821                           
   822                           ; 4 bytes @ 0x20
   823  0040                     	ds	4
   824  0044                     ??___fltol:
   825                           
   826                           ; 1 bytes @ 0x24
   827  0044                     	ds	5
   828  0049                     ___fltol@sign1:
   829                           
   830                           ; 1 bytes @ 0x29
   831  0049                     	ds	1
   832  004A                     ___fltol@exp1:
   833                           
   834                           ; 1 bytes @ 0x2A
   835  004A                     	ds	1
   836  004B                     ??_main:
   837                           
   838                           ; 1 bytes @ 0x2B
   839  004B                     	ds	3
   840                           
   841                           	psect	maintext
   842  0380                     __pmaintext:	
   843 ;;
   844 ;;Main: autosize = 0, tempsize = 3, incstack = 0, save=0
   845 ;;
   846 ;; *************** function _main *****************
   847 ;; Defined at:
   848 ;;		line 75 in file "master_main.c"
   849 ;; Parameters:    Size  Location     Type
   850 ;;		None
   851 ;; Auto vars:     Size  Location     Type
   852 ;;		None
   853 ;; Return value:  Size  Location     Type
   854 ;;                  1    wreg      void 
   855 ;; Registers used:
   856 ;;		wreg, fsr0l, fsr0h, status,2, status,0, btemp+1, pclath, cstack
   857 ;; Tracked objects:
   858 ;;		On entry : B00/0
   859 ;;		On exit  : 0/0
   860 ;;		Unchanged: 0/0
   861 ;; Data sizes:     COMMON   BANK0   BANK1   BANK3   BANK2
   862 ;;      Params:         0       0       0       0       0
   863 ;;      Locals:         0       0       0       0       0
   864 ;;      Temps:          0       3       0       0       0
   865 ;;      Totals:         0       3       0       0       0
   866 ;;Total ram usage:        3 bytes
   867 ;; Hardware stack levels required when called:    4
   868 ;; This function calls:
   869 ;;		_I2C_Master_Read
   870 ;;		_I2C_Master_Start
   871 ;;		_I2C_Master_Stop
   872 ;;		_I2C_Master_Write
   873 ;;		_Lcd_Clear
   874 ;;		_Lcd_Init
   875 ;;		_Lcd_Set_Cursor
   876 ;;		_Lcd_Write_Char
   877 ;;		_Lcd_Write_String
   878 ;;		_VAL
   879 ;;		___flmul
   880 ;;		___fltol
   881 ;;		___xxtofl
   882 ;;		_alarmaBuzzer
   883 ;;		_moverVentilador
   884 ;;		_setup
   885 ;; This function is called by:
   886 ;;		Startup code after reset
   887 ;; This function uses a non-reentrant model
   888 ;;
   889                           
   890                           
   891                           ;psect for function _main
   892  0380                     _main:
   893  0380                     l1792:	
   894                           ;incstack = 0
   895                           ; Regs used in _main: [wreg-fsr0h+status,2+status,0+btemp+1+pclath+cstack]
   896                           
   897                           
   898                           ;master_main.c: 76: 
   899  0380  120A  158A  2771  120A  118A  	fcall	_setup
   900                           
   901                           ;master_main.c: 77:         VAL(TEMP);
   902  0385  120A  118A  2764  120A  118A  	fcall	_Lcd_Init
   903                           
   904                           ;master_main.c: 78:         Lcd_Write_Char(83);
   905  038A  120A  158A  26A8  120A  118A  	fcall	_Lcd_Clear
   906                           
   907                           ;master_main.c: 79:         Lcd_Write_Char(79);
   908  038F  01F6               	clrf	Lcd_Set_Cursor@b
   909  0390  0AF6               	incf	Lcd_Set_Cursor@b,f
   910  0391  3001               	movlw	1
   911  0392  120A  118A  270C  120A  118A  	fcall	_Lcd_Set_Cursor
   912  0397                     l1794:
   913                           
   914                           ;master_main.c: 80:         Lcd_Write_Char(83);
   915  0397  3001               	movlw	(low ((STR_1-__stringbase)| (0+32768)))& (0+255)
   916  0398  120A  158A  2700  120A  118A  	fcall	_Lcd_Write_String
   917  039D                     l1796:
   918                           
   919                           ;master_main.c: 83: }
   920  039D  120A  158A  267F  120A  118A  	fcall	_I2C_Master_Start
   921  03A2                     l1798:
   922                           
   923                           ;master_main.c: 84: 
   924  03A2  3071               	movlw	113
   925  03A3  00F2               	movwf	I2C_Master_Write@d
   926  03A4  3000               	movlw	0
   927  03A5  00F3               	movwf	I2C_Master_Write@d+1
   928  03A6  120A  158A  2691  120A  118A  	fcall	_I2C_Master_Write
   929  03AB                     l1800:
   930                           
   931                           ;master_main.c: 85: void setup(void){
   932  03AB  3000               	movlw	0
   933  03AC  00F2               	movwf	I2C_Master_Read@a
   934  03AD  00F3               	movwf	I2C_Master_Read@a+1
   935  03AE  120A  158A  279A  120A  118A  	fcall	_I2C_Master_Read
   936  03B3  0873               	movf	?_I2C_Master_Read+1,w
   937  03B4  1283               	bcf	3,5	;RP0=0, select bank0
   938  03B5  1303               	bcf	3,6	;RP1=0, select bank0
   939  03B6  00D3               	movwf	_valor_ADC+1
   940  03B7  0872               	movf	?_I2C_Master_Read,w
   941  03B8  00D2               	movwf	_valor_ADC
   942  03B9                     l1802:
   943                           
   944                           ;master_main.c: 86: 
   945  03B9  120A  158A  2688  120A  118A  	fcall	_I2C_Master_Stop
   946  03BE                     l1804:
   947                           
   948                           ;master_main.c: 87:     ANSEL = 0B0000000;
   949  03BE  3003               	movlw	3
   950  03BF  1283               	bcf	3,5	;RP0=0, select bank0
   951  03C0  1303               	bcf	3,6	;RP1=0, select bank0
   952  03C1  00CD               	movwf	??_main+2
   953  03C2  3008               	movlw	8
   954  03C3  00CC               	movwf	??_main+1
   955  03C4  3076               	movlw	118
   956  03C5  00CB               	movwf	??_main
   957  03C6                     u1877:
   958  03C6  0BCB               	decfsz	??_main,f
   959  03C7  2BC6               	goto	u1877
   960  03C8  0BCC               	decfsz	??_main+1,f
   961  03C9  2BC6               	goto	u1877
   962  03CA  0BCD               	decfsz	??_main+2,f
   963  03CB  2BC6               	goto	u1877
   964  03CC  0000               	nop
   965  03CD                     l1806:
   966                           
   967                           ;master_main.c: 90:     TRISA = 0B0000000;
   968  03CD  120A  158A  267F  120A  118A  	fcall	_I2C_Master_Start
   969  03D2                     l1808:
   970                           
   971                           ;master_main.c: 91:     TRISD = 0X00;
   972  03D2  3081               	movlw	129
   973  03D3  00F2               	movwf	I2C_Master_Write@d
   974  03D4  3000               	movlw	0
   975  03D5  00F3               	movwf	I2C_Master_Write@d+1
   976  03D6  120A  158A  2691  120A  118A  	fcall	_I2C_Master_Write
   977  03DB                     l1810:
   978                           
   979                           ;master_main.c: 92:     TRISE = 0X00;
   980  03DB  3000               	movlw	0
   981  03DC  00F2               	movwf	I2C_Master_Read@a
   982  03DD  00F3               	movwf	I2C_Master_Read@a+1
   983  03DE  120A  158A  279A  120A  118A  	fcall	_I2C_Master_Read
   984  03E3  0873               	movf	?_I2C_Master_Read+1,w
   985  03E4  1283               	bcf	3,5	;RP0=0, select bank0
   986  03E5  1303               	bcf	3,6	;RP1=0, select bank0
   987  03E6  00CF               	movwf	_T_byte1+1
   988  03E7  0872               	movf	?_I2C_Master_Read,w
   989  03E8  00CE               	movwf	_T_byte1
   990  03E9                     l1812:
   991                           
   992                           ;master_main.c: 93:     TRISB = 0X00;
   993  03E9  120A  158A  2688  120A  118A  	fcall	_I2C_Master_Stop
   994  03EE                     l1814:
   995                           
   996                           ;master_main.c: 94: 
   997  03EE  3004               	movlw	4
   998  03EF  1283               	bcf	3,5	;RP0=0, select bank0
   999  03F0  1303               	bcf	3,6	;RP1=0, select bank0
  1000  03F1  00CD               	movwf	??_main+2
  1001  03F2  300C               	movlw	12
  1002  03F3  00CC               	movwf	??_main+1
  1003  03F4  3033               	movlw	51
  1004  03F5  00CB               	movwf	??_main
  1005  03F6                     u1887:
  1006  03F6  0BCB               	decfsz	??_main,f
  1007  03F7  2BF6               	goto	u1887
  1008  03F8  0BCC               	decfsz	??_main+1,f
  1009  03F9  2BF6               	goto	u1887
  1010  03FA  0BCD               	decfsz	??_main+2,f
  1011  03FB  2BF6               	goto	u1887
  1012  03FC                     l1816:
  1013                           
  1014                           ;master_main.c: 96:     PORTB = 0X00;
  1015  03FC  120A  118A  27EF  120A  118A  	fcall	_moverVentilador
  1016  0401                     l1818:
  1017                           
  1018                           ;master_main.c: 98:     PORTD = 0X00;
  1019  0401  120A  158A  267F  120A  118A  	fcall	_I2C_Master_Start
  1020  0406                     l1820:
  1021                           
  1022                           ;master_main.c: 99:     PORTE = 0X00;
  1023  0406  3071               	movlw	113
  1024  0407  00F2               	movwf	I2C_Master_Write@d
  1025  0408  3000               	movlw	0
  1026  0409  00F3               	movwf	I2C_Master_Write@d+1
  1027  040A  120A  158A  2691  120A  118A  	fcall	_I2C_Master_Write
  1028  040F                     l1822:
  1029                           
  1030                           ;master_main.c: 100: 
  1031  040F  3000               	movlw	0
  1032  0410  00F2               	movwf	I2C_Master_Read@a
  1033  0411  00F3               	movwf	I2C_Master_Read@a+1
  1034  0412  120A  158A  279A  120A  118A  	fcall	_I2C_Master_Read
  1035  0417  0872               	movf	?_I2C_Master_Read,w
  1036  0418  1283               	bcf	3,5	;RP0=0, select bank0
  1037  0419  1303               	bcf	3,6	;RP1=0, select bank0
  1038  041A  00CB               	movwf	??_main
  1039  041B  084B               	movf	??_main,w
  1040  041C  00D4               	movwf	_alarma
  1041  041D                     l1824:
  1042                           
  1043                           ;master_main.c: 101: 
  1044  041D  120A  158A  2688  120A  118A  	fcall	_I2C_Master_Stop
  1045  0422                     l1826:
  1046                           
  1047                           ;master_main.c: 102:     OSCCONbits.IRCF2 = 1;
  1048  0422  3004               	movlw	4
  1049  0423  1283               	bcf	3,5	;RP0=0, select bank0
  1050  0424  1303               	bcf	3,6	;RP1=0, select bank0
  1051  0425  00CD               	movwf	??_main+2
  1052  0426  300C               	movlw	12
  1053  0427  00CC               	movwf	??_main+1
  1054  0428  3033               	movlw	51
  1055  0429  00CB               	movwf	??_main
  1056  042A                     u1897:
  1057  042A  0BCB               	decfsz	??_main,f
  1058  042B  2C2A               	goto	u1897
  1059  042C  0BCC               	decfsz	??_main+1,f
  1060  042D  2C2A               	goto	u1897
  1061  042E  0BCD               	decfsz	??_main+2,f
  1062  042F  2C2A               	goto	u1897
  1063  0430                     l1828:
  1064                           
  1065                           ;master_main.c: 104:     OSCCONbits.IRCF0 = 1;
  1066  0430  1283               	bcf	3,5	;RP0=0, select bank0
  1067  0431  1303               	bcf	3,6	;RP1=0, select bank0
  1068  0432  0A54               	incf	_alarma,w
  1069  0433  1D03               	btfss	3,2
  1070  0434  2C36               	goto	u1861
  1071  0435  2C37               	goto	u1860
  1072  0436                     u1861:
  1073  0436  2C3C               	goto	l1832
  1074  0437                     u1860:
  1075  0437                     l1830:
  1076                           
  1077                           ;master_main.c: 105:     OSCCONbits.SCS = 1;
  1078  0437  120A  158A  26B5  120A  118A  	fcall	_alarmaBuzzer
  1079  043C                     l1832:
  1080                           
  1081                           ;master_main.c: 108:     I2C_Master_Init(100000);
  1082  043C  1283               	bcf	3,5	;RP0=0, select bank0
  1083  043D  1303               	bcf	3,6	;RP1=0, select bank0
  1084  043E  0852               	movf	_valor_ADC,w
  1085  043F  00F2               	movwf	___xxtofl@val
  1086  0440  0853               	movf	_valor_ADC+1,w
  1087  0441  00F3               	movwf	___xxtofl@val+1
  1088  0442  01F4               	clrf	___xxtofl@val+2
  1089  0443  01F5               	clrf	___xxtofl@val+3
  1090  0444  3000               	movlw	0
  1091  0445  120A  118A  24F8  120A  118A  	fcall	___xxtofl
  1092  044A  0875               	movf	?___xxtofl+3,w
  1093  044B  1283               	bcf	3,5	;RP0=0, select bank0
  1094  044C  1303               	bcf	3,6	;RP1=0, select bank0
  1095  044D  00AD               	movwf	___flmul@a+3
  1096  044E  0874               	movf	?___xxtofl+2,w
  1097  044F  00AC               	movwf	___flmul@a+2
  1098  0450  0873               	movf	?___xxtofl+1,w
  1099  0451  00AB               	movwf	___flmul@a+1
  1100  0452  0872               	movf	?___xxtofl,w
  1101  0453  00AA               	movwf	___flmul@a
  1102  0454  303F               	movlw	63
  1103  0455  00A9               	movwf	___flmul@b+3
  1104  0456  30FB               	movlw	251
  1105  0457  00A8               	movwf	___flmul@b+2
  1106  0458  3002               	movlw	2
  1107  0459  00A7               	movwf	___flmul@b+1
  1108  045A  300C               	movlw	12
  1109  045B  00A6               	movwf	___flmul@b
  1110  045C  120A  118A  201F  120A  118A  	fcall	___flmul
  1111  0461  1283               	bcf	3,5	;RP0=0, select bank0
  1112  0462  1303               	bcf	3,6	;RP1=0, select bank0
  1113  0463  0829               	movf	?___flmul+3,w
  1114  0464  00C3               	movwf	___fltol@f1+3
  1115  0465  0828               	movf	?___flmul+2,w
  1116  0466  00C2               	movwf	___fltol@f1+2
  1117  0467  0827               	movf	?___flmul+1,w
  1118  0468  00C1               	movwf	___fltol@f1+1
  1119  0469  0826               	movf	?___flmul,w
  1120  046A  00C0               	movwf	___fltol@f1
  1121  046B  120A  118A  25B4  120A  118A  	fcall	___fltol
  1122  0470  1283               	bcf	3,5	;RP0=0, select bank0
  1123  0471  1303               	bcf	3,6	;RP1=0, select bank0
  1124  0472  0841               	movf	?___fltol+1,w
  1125  0473  00D3               	movwf	_valor_ADC+1
  1126  0474  0840               	movf	?___fltol,w
  1127  0475  00D2               	movwf	_valor_ADC
  1128  0476                     l1834:
  1129                           
  1130                           ;master_main.c: 109: }
  1131  0476  0853               	movf	_valor_ADC+1,w
  1132  0477  00FB               	movwf	VAL@variable+1
  1133  0478  0852               	movf	_valor_ADC,w
  1134  0479  00FA               	movwf	VAL@variable
  1135  047A  120A  118A  2630  120A  118A  	fcall	_VAL
  1136  047F                     l1836:
  1137                           
  1138                           ;master_main.c: 110: void VAL(uint16_t variable){
  1139  047F  01F6               	clrf	Lcd_Set_Cursor@b
  1140  0480  0AF6               	incf	Lcd_Set_Cursor@b,f
  1141  0481  3002               	movlw	2
  1142  0482  120A  118A  270C  120A  118A  	fcall	_Lcd_Set_Cursor
  1143  0487                     l1838:
  1144                           
  1145                           ;master_main.c: 111:     uint16_t valor;
  1146  0487  1283               	bcf	3,5	;RP0=0, select bank0
  1147  0488  1303               	bcf	3,6	;RP1=0, select bank0
  1148  0489  0857               	movf	_POS1,w
  1149  048A  120A  158A  26E3  120A  118A  	fcall	_Lcd_Write_Char
  1150  048F                     l1840:
  1151                           
  1152                           ;master_main.c: 112:     valor = variable;
  1153  048F  302E               	movlw	46
  1154  0490  120A  158A  26E3  120A  118A  	fcall	_Lcd_Write_Char
  1155  0495                     l1842:
  1156                           
  1157                           ;master_main.c: 113:     POS1 = (valor/100) ;
  1158  0495  1283               	bcf	3,5	;RP0=0, select bank0
  1159  0496  1303               	bcf	3,6	;RP1=0, select bank0
  1160  0497  0856               	movf	_POS2,w
  1161  0498  120A  158A  26E3  120A  118A  	fcall	_Lcd_Write_Char
  1162  049D                     l1844:
  1163                           
  1164                           ;master_main.c: 114:     valor = (valor - (POS1*100));
  1165  049D  1283               	bcf	3,5	;RP0=0, select bank0
  1166  049E  1303               	bcf	3,6	;RP1=0, select bank0
  1167  049F  0855               	movf	_POS3,w
  1168  04A0  120A  158A  26E3  120A  118A  	fcall	_Lcd_Write_Char
  1169  04A5                     l1846:
  1170                           
  1171                           ;master_main.c: 115:     POS2 = (valor/10);
  1172  04A5  3017               	movlw	(low ((STR_2-__stringbase)| (0+32768)))& (0+255)
  1173  04A6  120A  158A  2700  120A  118A  	fcall	_Lcd_Write_String
  1174  04AB                     l1848:
  1175                           
  1176                           ;master_main.c: 117:     POS3 = (valor);
  1177  04AB  1283               	bcf	3,5	;RP0=0, select bank0
  1178  04AC  1303               	bcf	3,6	;RP1=0, select bank0
  1179  04AD  084F               	movf	_T_byte1+1,w
  1180  04AE  00FB               	movwf	VAL@variable+1
  1181  04AF  084E               	movf	_T_byte1,w
  1182  04B0  00FA               	movwf	VAL@variable
  1183  04B1  120A  118A  2630  120A  118A  	fcall	_VAL
  1184  04B6                     l1850:
  1185                           
  1186                           ;master_main.c: 118: 
  1187  04B6  1283               	bcf	3,5	;RP0=0, select bank0
  1188  04B7  1303               	bcf	3,6	;RP1=0, select bank0
  1189  04B8  0857               	movf	_POS1,w
  1190  04B9  120A  158A  26E3  120A  118A  	fcall	_Lcd_Write_Char
  1191  04BE                     l1852:
  1192                           
  1193                           ;master_main.c: 119:     POS1 = POS1 + 48;
  1194  04BE  1283               	bcf	3,5	;RP0=0, select bank0
  1195  04BF  1303               	bcf	3,6	;RP1=0, select bank0
  1196  04C0  0856               	movf	_POS2,w
  1197  04C1  120A  158A  26E3  120A  118A  	fcall	_Lcd_Write_Char
  1198  04C6                     l1854:
  1199                           
  1200                           ;master_main.c: 120:     POS2 = POS2 + 48;
  1201  04C6  1283               	bcf	3,5	;RP0=0, select bank0
  1202  04C7  1303               	bcf	3,6	;RP1=0, select bank0
  1203  04C8  0855               	movf	_POS3,w
  1204  04C9  120A  158A  26E3  120A  118A  	fcall	_Lcd_Write_Char
  1205  04CE                     l1856:
  1206                           
  1207                           ;master_main.c: 121:     POS3 = POS3 + 48;
  1208  04CE  3012               	movlw	(low ((STR_3-__stringbase)| (0+32768)))& (0+255)
  1209  04CF  120A  158A  2700  120A  118A  	fcall	_Lcd_Write_String
  1210  04D4                     l1858:
  1211                           
  1212                           ;master_main.c: 123: }
  1213  04D4  3000               	movlw	0
  1214  04D5  00FA               	movwf	VAL@variable
  1215  04D6  00FB               	movwf	VAL@variable+1
  1216  04D7  120A  118A  2630  120A  118A  	fcall	_VAL
  1217  04DC                     l1860:
  1218                           
  1219                           ;master_main.c: 124: 
  1220  04DC  3053               	movlw	83
  1221  04DD  120A  158A  26E3  120A  118A  	fcall	_Lcd_Write_Char
  1222  04E2                     l1862:
  1223                           
  1224                           ;master_main.c: 125: void moverVentilador(){
  1225  04E2  304F               	movlw	79
  1226  04E3  120A  158A  26E3  120A  118A  	fcall	_Lcd_Write_Char
  1227  04E8                     l1864:
  1228                           
  1229                           ;master_main.c: 126:     if(T_byte1>0x19){
  1230  04E8  3053               	movlw	83
  1231  04E9  120A  158A  26E3  120A  118A  	fcall	_Lcd_Write_Char
  1232  04EE                     l1866:
  1233                           
  1234                           ;master_main.c: 127:         PORTAbits.RA0 = 1;
  1235  04EE  3016               	movlw	(low (((STR_3+4)-__stringbase)| (0+32768)))& (0+255)
  1236  04EF  120A  158A  2700  120A  118A  	fcall	_Lcd_Write_String
  1237  04F4  2B9D               	goto	l1796
  1238  04F5  120A  118A  280C   	ljmp	start
  1239  04F8                     __end_of_main:
  1240                           
  1241                           	psect	text1
  1242  0F71                     __ptext1:	
  1243 ;; *************** function _setup *****************
  1244 ;; Defined at:
  1245 ;;		line 131 in file "master_main.c"
  1246 ;; Parameters:    Size  Location     Type
  1247 ;;		None
  1248 ;; Auto vars:     Size  Location     Type
  1249 ;;		None
  1250 ;; Return value:  Size  Location     Type
  1251 ;;                  1    wreg      void 
  1252 ;; Registers used:
  1253 ;;		wreg, status,2, status,0, pclath, cstack
  1254 ;; Tracked objects:
  1255 ;;		On entry : 0/0
  1256 ;;		On exit  : 0/0
  1257 ;;		Unchanged: 0/0
  1258 ;; Data sizes:     COMMON   BANK0   BANK1   BANK3   BANK2
  1259 ;;      Params:         0       0       0       0       0
  1260 ;;      Locals:         0       0       0       0       0
  1261 ;;      Temps:          0       0       0       0       0
  1262 ;;      Totals:         0       0       0       0       0
  1263 ;;Total ram usage:        0 bytes
  1264 ;; Hardware stack levels used:    1
  1265 ;; Hardware stack levels required when called:    3
  1266 ;; This function calls:
  1267 ;;		_I2C_Master_Init
  1268 ;; This function is called by:
  1269 ;;		_main
  1270 ;; This function uses a non-reentrant model
  1271 ;;
  1272                           
  1273                           
  1274                           ;psect for function _setup
  1275  0F71                     _setup:
  1276  0F71                     l1522:	
  1277                           ;incstack = 0
  1278                           ; Regs used in _setup: [wreg+status,2+status,0+pclath+cstack]
  1279                           
  1280                           
  1281                           ;master_main.c: 133: void alarmaBuzzer(){
  1282  0F71  1683               	bsf	3,5	;RP0=1, select bank3
  1283  0F72  1703               	bsf	3,6	;RP1=1, select bank3
  1284  0F73  0188               	clrf	8	;volatile
  1285                           
  1286                           ;master_main.c: 134: 
  1287  0F74  0189               	clrf	9	;volatile
  1288                           
  1289                           ;master_main.c: 136:     PORTAbits.RA1 = 1;
  1290  0F75  1683               	bsf	3,5	;RP0=1, select bank1
  1291  0F76  1303               	bcf	3,6	;RP1=0, select bank1
  1292  0F77  0185               	clrf	5	;volatile
  1293                           
  1294                           ;master_main.c: 137:     _delay((unsigned long)((500)*(8000000/4000.0)));
  1295  0F78  0188               	clrf	8	;volatile
  1296                           
  1297                           ;master_main.c: 138:     PORTAbits.RA1 = 0;
  1298  0F79  0189               	clrf	9	;volatile
  1299                           
  1300                           ;master_main.c: 139: 
  1301  0F7A  0186               	clrf	6	;volatile
  1302                           
  1303                           ;master_main.c: 141: 
  1304  0F7B  1283               	bcf	3,5	;RP0=0, select bank0
  1305  0F7C  1303               	bcf	3,6	;RP1=0, select bank0
  1306  0F7D  0185               	clrf	5	;volatile
  1307                           
  1308                           ;master_main.c: 142: }
  1309  0F7E  0186               	clrf	6	;volatile
  1310  0F7F  0187               	clrf	7	;volatile
  1311  0F80  0188               	clrf	8	;volatile
  1312  0F81  0189               	clrf	9	;volatile
  1313  0F82                     l1524:
  1314  0F82  1683               	bsf	3,5	;RP0=1, select bank1
  1315  0F83  1303               	bcf	3,6	;RP1=0, select bank1
  1316  0F84  170F               	bsf	15,6	;volatile
  1317  0F85                     l1526:
  1318  0F85  168F               	bsf	15,5	;volatile
  1319  0F86                     l1528:
  1320  0F86  160F               	bsf	15,4	;volatile
  1321  0F87                     l1530:
  1322  0F87  140F               	bsf	15,0	;volatile
  1323  0F88                     l1532:
  1324  0F88  138B               	bcf	11,7	;volatile
  1325  0F89                     l1534:
  1326  0F89  130B               	bcf	11,6	;volatile
  1327  0F8A                     l1536:
  1328  0F8A  3000               	movlw	0
  1329  0F8B  1283               	bcf	3,5	;RP0=0, select bank0
  1330  0F8C  1303               	bcf	3,6	;RP1=0, select bank0
  1331  0F8D  00A8               	movwf	I2C_Master_Init@c+3
  1332  0F8E  3001               	movlw	1
  1333  0F8F  00A7               	movwf	I2C_Master_Init@c+2
  1334  0F90  3086               	movlw	134
  1335  0F91  00A6               	movwf	I2C_Master_Init@c+1
  1336  0F92  30A0               	movlw	160
  1337  0F93  00A5               	movwf	I2C_Master_Init@c
  1338  0F94  120A  158A  27C8  120A  158A  	fcall	_I2C_Master_Init
  1339  0F99                     l185:
  1340  0F99  0008               	return
  1341  0F9A                     __end_of_setup:
  1342                           
  1343                           	psect	text2
  1344  0FC8                     __ptext2:	
  1345 ;; *************** function _I2C_Master_Init *****************
  1346 ;; Defined at:
  1347 ;;		line 16 in file "I2C.c"
  1348 ;; Parameters:    Size  Location     Type
  1349 ;;  c               4    5[BANK0 ] const unsigned long 
  1350 ;; Auto vars:     Size  Location     Type
  1351 ;;		None
  1352 ;; Return value:  Size  Location     Type
  1353 ;;                  1    wreg      void 
  1354 ;; Registers used:
  1355 ;;		wreg, status,2, status,0, pclath, cstack
  1356 ;; Tracked objects:
  1357 ;;		On entry : 0/0
  1358 ;;		On exit  : 0/0
  1359 ;;		Unchanged: 0/0
  1360 ;; Data sizes:     COMMON   BANK0   BANK1   BANK3   BANK2
  1361 ;;      Params:         0       4       0       0       0
  1362 ;;      Locals:         0       0       0       0       0
  1363 ;;      Temps:          0       4       0       0       0
  1364 ;;      Totals:         0       8       0       0       0
  1365 ;;Total ram usage:        8 bytes
  1366 ;; Hardware stack levels used:    1
  1367 ;; Hardware stack levels required when called:    2
  1368 ;; This function calls:
  1369 ;;		___lldiv
  1370 ;; This function is called by:
  1371 ;;		_setup
  1372 ;; This function uses a non-reentrant model
  1373 ;;
  1374                           
  1375                           
  1376                           ;psect for function _I2C_Master_Init
  1377  0FC8                     _I2C_Master_Init:
  1378  0FC8                     l1362:	
  1379                           ;incstack = 0
  1380                           ; Regs used in _I2C_Master_Init: [wreg+status,2+status,0+pclath+cstack]
  1381                           
  1382                           
  1383                           ;I2C.c: 16: void I2C_Master_Init(const unsigned long c);I2C.c: 17: {;I2C.c: 18:     SSPC
      +                          ON = 0b00101000;
  1384  0FC8  3028               	movlw	40
  1385  0FC9  1283               	bcf	3,5	;RP0=0, select bank0
  1386  0FCA  1303               	bcf	3,6	;RP1=0, select bank0
  1387  0FCB  0094               	movwf	20	;volatile
  1388  0FCC                     l1364:
  1389                           
  1390                           ;I2C.c: 19:     SSPCON2 = 0;
  1391  0FCC  1683               	bsf	3,5	;RP0=1, select bank1
  1392  0FCD  1303               	bcf	3,6	;RP1=0, select bank1
  1393  0FCE  0191               	clrf	17	;volatile
  1394  0FCF                     l1366:
  1395                           
  1396                           ;I2C.c: 20:     SSPADD = (8000000/(4*c))-1;
  1397  0FCF  1283               	bcf	3,5	;RP0=0, select bank0
  1398  0FD0  1303               	bcf	3,6	;RP1=0, select bank0
  1399  0FD1  0825               	movf	I2C_Master_Init@c,w
  1400  0FD2  00A9               	movwf	??_I2C_Master_Init
  1401  0FD3  0826               	movf	I2C_Master_Init@c+1,w
  1402  0FD4  00AA               	movwf	??_I2C_Master_Init+1
  1403  0FD5  0827               	movf	I2C_Master_Init@c+2,w
  1404  0FD6  00AB               	movwf	??_I2C_Master_Init+2
  1405  0FD7  0828               	movf	I2C_Master_Init@c+3,w
  1406  0FD8  00AC               	movwf	??_I2C_Master_Init+3
  1407  0FD9  3002               	movlw	2
  1408  0FDA                     u1015:
  1409  0FDA  1003               	clrc
  1410  0FDB  0DA9               	rlf	??_I2C_Master_Init,f
  1411  0FDC  0DAA               	rlf	??_I2C_Master_Init+1,f
  1412  0FDD  0DAB               	rlf	??_I2C_Master_Init+2,f
  1413  0FDE  0DAC               	rlf	??_I2C_Master_Init+3,f
  1414  0FDF                     u1010:
  1415  0FDF  3EFF               	addlw	-1
  1416  0FE0  1D03               	skipz
  1417  0FE1  2FDA               	goto	u1015
  1418  0FE2  082C               	movf	??_I2C_Master_Init+3,w
  1419  0FE3  00F5               	movwf	___lldiv@divisor+3
  1420  0FE4  082B               	movf	??_I2C_Master_Init+2,w
  1421  0FE5  00F4               	movwf	___lldiv@divisor+2
  1422  0FE6  082A               	movf	??_I2C_Master_Init+1,w
  1423  0FE7  00F3               	movwf	___lldiv@divisor+1
  1424  0FE8  0829               	movf	??_I2C_Master_Init,w
  1425  0FE9  00F2               	movwf	___lldiv@divisor
  1426  0FEA  3000               	movlw	0
  1427  0FEB  00F9               	movwf	___lldiv@dividend+3
  1428  0FEC  307A               	movlw	122
  1429  0FED  00F8               	movwf	___lldiv@dividend+2
  1430  0FEE  3012               	movlw	18
  1431  0FEF  00F7               	movwf	___lldiv@dividend+1
  1432  0FF0  3000               	movlw	0
  1433  0FF1  00F6               	movwf	___lldiv@dividend
  1434  0FF2  120A  118A  26A4  120A  158A  	fcall	___lldiv
  1435  0FF7  0872               	movf	?___lldiv,w
  1436  0FF8  3EFF               	addlw	255
  1437  0FF9  1683               	bsf	3,5	;RP0=1, select bank1
  1438  0FFA  1303               	bcf	3,6	;RP1=0, select bank1
  1439  0FFB  0093               	movwf	19	;volatile
  1440  0FFC                     l1368:
  1441                           
  1442                           ;I2C.c: 21:     SSPSTAT = 0;
  1443  0FFC  0194               	clrf	20	;volatile
  1444  0FFD                     l1370:
  1445                           
  1446                           ;I2C.c: 22:     TRISCbits.TRISC3 = 1;
  1447  0FFD  1587               	bsf	7,3	;volatile
  1448  0FFE                     l1372:
  1449                           
  1450                           ;I2C.c: 23:     TRISCbits.TRISC4 = 1;
  1451  0FFE  1607               	bsf	7,4	;volatile
  1452  0FFF                     l29:
  1453  0FFF  0008               	return
  1454  1000                     __end_of_I2C_Master_Init:
  1455                           
  1456                           	psect	text3
  1457  06A4                     __ptext3:	
  1458 ;; *************** function ___lldiv *****************
  1459 ;; Defined at:
  1460 ;;		line 5 in file "C:\Program Files\Microchip\xc8\v2.31\pic\sources\c90\common\__lldiv.c"
  1461 ;; Parameters:    Size  Location     Type
  1462 ;;  divisor         4    2[COMMON] unsigned long 
  1463 ;;  dividend        4    6[COMMON] unsigned long 
  1464 ;; Auto vars:     Size  Location     Type
  1465 ;;  quotient        4    0[BANK0 ] unsigned long 
  1466 ;;  counter         1    4[BANK0 ] unsigned char 
  1467 ;; Return value:  Size  Location     Type
  1468 ;;                  4    2[COMMON] unsigned long 
  1469 ;; Registers used:
  1470 ;;		wreg, status,2, status,0
  1471 ;; Tracked objects:
  1472 ;;		On entry : 0/0
  1473 ;;		On exit  : 0/0
  1474 ;;		Unchanged: 0/0
  1475 ;; Data sizes:     COMMON   BANK0   BANK1   BANK3   BANK2
  1476 ;;      Params:         8       0       0       0       0
  1477 ;;      Locals:         0       5       0       0       0
  1478 ;;      Temps:          1       0       0       0       0
  1479 ;;      Totals:         9       5       0       0       0
  1480 ;;Total ram usage:       14 bytes
  1481 ;; Hardware stack levels used:    1
  1482 ;; Hardware stack levels required when called:    1
  1483 ;; This function calls:
  1484 ;;		Nothing
  1485 ;; This function is called by:
  1486 ;;		_I2C_Master_Init
  1487 ;; This function uses a non-reentrant model
  1488 ;;
  1489                           
  1490                           
  1491                           ;psect for function ___lldiv
  1492  06A4                     ___lldiv:
  1493  06A4                     l1338:	
  1494                           ;incstack = 0
  1495                           ; Regs used in ___lldiv: [wreg+status,2+status,0]
  1496                           
  1497  06A4  3000               	movlw	0
  1498  06A5  1283               	bcf	3,5	;RP0=0, select bank0
  1499  06A6  1303               	bcf	3,6	;RP1=0, select bank0
  1500  06A7  00A3               	movwf	___lldiv@quotient+3
  1501  06A8  3000               	movlw	0
  1502  06A9  00A2               	movwf	___lldiv@quotient+2
  1503  06AA  3000               	movlw	0
  1504  06AB  00A1               	movwf	___lldiv@quotient+1
  1505  06AC  3000               	movlw	0
  1506  06AD  00A0               	movwf	___lldiv@quotient
  1507  06AE  0875               	movf	___lldiv@divisor+3,w
  1508  06AF  0474               	iorwf	___lldiv@divisor+2,w
  1509  06B0  0473               	iorwf	___lldiv@divisor+1,w
  1510  06B1  0472               	iorwf	___lldiv@divisor,w
  1511  06B2  1903               	skipnz
  1512  06B3  2EB5               	goto	u941
  1513  06B4  2EB6               	goto	u940
  1514  06B5                     u941:
  1515  06B5  2F03               	goto	l1358
  1516  06B6                     u940:
  1517  06B6                     l1340:
  1518  06B6  01A4               	clrf	___lldiv@counter
  1519  06B7  0AA4               	incf	___lldiv@counter,f
  1520  06B8  2EC6               	goto	l1344
  1521  06B9                     l1342:
  1522  06B9  3001               	movlw	1
  1523  06BA  00FA               	movwf	??___lldiv
  1524  06BB                     u955:
  1525  06BB  1003               	clrc
  1526  06BC  0DF2               	rlf	___lldiv@divisor,f
  1527  06BD  0DF3               	rlf	___lldiv@divisor+1,f
  1528  06BE  0DF4               	rlf	___lldiv@divisor+2,f
  1529  06BF  0DF5               	rlf	___lldiv@divisor+3,f
  1530  06C0  0BFA               	decfsz	??___lldiv,f
  1531  06C1  2EBB               	goto	u955
  1532  06C2  3001               	movlw	1
  1533  06C3  00FA               	movwf	??___lldiv
  1534  06C4  087A               	movf	??___lldiv,w
  1535  06C5  07A4               	addwf	___lldiv@counter,f
  1536  06C6                     l1344:
  1537  06C6  1FF5               	btfss	___lldiv@divisor+3,7
  1538  06C7  2EC9               	goto	u961
  1539  06C8  2ECA               	goto	u960
  1540  06C9                     u961:
  1541  06C9  2EB9               	goto	l1342
  1542  06CA                     u960:
  1543  06CA                     l1346:
  1544  06CA  3001               	movlw	1
  1545  06CB  00FA               	movwf	??___lldiv
  1546  06CC                     u975:
  1547  06CC  1003               	clrc
  1548  06CD  0DA0               	rlf	___lldiv@quotient,f
  1549  06CE  0DA1               	rlf	___lldiv@quotient+1,f
  1550  06CF  0DA2               	rlf	___lldiv@quotient+2,f
  1551  06D0  0DA3               	rlf	___lldiv@quotient+3,f
  1552  06D1  0BFA               	decfsz	??___lldiv,f
  1553  06D2  2ECC               	goto	u975
  1554  06D3                     l1348:
  1555  06D3  0875               	movf	___lldiv@divisor+3,w
  1556  06D4  0279               	subwf	___lldiv@dividend+3,w
  1557  06D5  1D03               	skipz
  1558  06D6  2EE1               	goto	u985
  1559  06D7  0874               	movf	___lldiv@divisor+2,w
  1560  06D8  0278               	subwf	___lldiv@dividend+2,w
  1561  06D9  1D03               	skipz
  1562  06DA  2EE1               	goto	u985
  1563  06DB  0873               	movf	___lldiv@divisor+1,w
  1564  06DC  0277               	subwf	___lldiv@dividend+1,w
  1565  06DD  1D03               	skipz
  1566  06DE  2EE1               	goto	u985
  1567  06DF  0872               	movf	___lldiv@divisor,w
  1568  06E0  0276               	subwf	___lldiv@dividend,w
  1569  06E1                     u985:
  1570  06E1  1C03               	skipc
  1571  06E2  2EE4               	goto	u981
  1572  06E3  2EE5               	goto	u980
  1573  06E4                     u981:
  1574  06E4  2EF4               	goto	l1354
  1575  06E5                     u980:
  1576  06E5                     l1350:
  1577  06E5  0872               	movf	___lldiv@divisor,w
  1578  06E6  02F6               	subwf	___lldiv@dividend,f
  1579  06E7  0873               	movf	___lldiv@divisor+1,w
  1580  06E8  1C03               	skipc
  1581  06E9  0F73               	incfsz	___lldiv@divisor+1,w
  1582  06EA  02F7               	subwf	___lldiv@dividend+1,f
  1583  06EB  0874               	movf	___lldiv@divisor+2,w
  1584  06EC  1C03               	skipc
  1585  06ED  0F74               	incfsz	___lldiv@divisor+2,w
  1586  06EE  02F8               	subwf	___lldiv@dividend+2,f
  1587  06EF  0875               	movf	___lldiv@divisor+3,w
  1588  06F0  1C03               	skipc
  1589  06F1  0F75               	incfsz	___lldiv@divisor+3,w
  1590  06F2  02F9               	subwf	___lldiv@dividend+3,f
  1591  06F3                     l1352:
  1592  06F3  1420               	bsf	___lldiv@quotient,0
  1593  06F4                     l1354:
  1594  06F4  3001               	movlw	1
  1595  06F5                     u995:
  1596  06F5  1003               	clrc
  1597  06F6  0CF5               	rrf	___lldiv@divisor+3,f
  1598  06F7  0CF4               	rrf	___lldiv@divisor+2,f
  1599  06F8  0CF3               	rrf	___lldiv@divisor+1,f
  1600  06F9  0CF2               	rrf	___lldiv@divisor,f
  1601  06FA  3EFF               	addlw	-1
  1602  06FB  1D03               	skipz
  1603  06FC  2EF5               	goto	u995
  1604  06FD                     l1356:
  1605  06FD  3001               	movlw	1
  1606  06FE  02A4               	subwf	___lldiv@counter,f
  1607  06FF  1D03               	btfss	3,2
  1608  0700  2F02               	goto	u1001
  1609  0701  2F03               	goto	u1000
  1610  0702                     u1001:
  1611  0702  2ECA               	goto	l1346
  1612  0703                     u1000:
  1613  0703                     l1358:
  1614  0703  0823               	movf	___lldiv@quotient+3,w
  1615  0704  00F5               	movwf	?___lldiv+3
  1616  0705  0822               	movf	___lldiv@quotient+2,w
  1617  0706  00F4               	movwf	?___lldiv+2
  1618  0707  0821               	movf	___lldiv@quotient+1,w
  1619  0708  00F3               	movwf	?___lldiv+1
  1620  0709  0820               	movf	___lldiv@quotient,w
  1621  070A  00F2               	movwf	?___lldiv
  1622  070B                     l318:
  1623  070B  0008               	return
  1624  070C                     __end_of___lldiv:
  1625                           
  1626                           	psect	text4
  1627  07EF                     __ptext4:	
  1628 ;; *************** function _moverVentilador *****************
  1629 ;; Defined at:
  1630 ;;		line 171 in file "master_main.c"
  1631 ;; Parameters:    Size  Location     Type
  1632 ;;		None
  1633 ;; Auto vars:     Size  Location     Type
  1634 ;;		None
  1635 ;; Return value:  Size  Location     Type
  1636 ;;                  1    wreg      void 
  1637 ;; Registers used:
  1638 ;;		wreg
  1639 ;; Tracked objects:
  1640 ;;		On entry : 0/0
  1641 ;;		On exit  : 0/0
  1642 ;;		Unchanged: 0/0
  1643 ;; Data sizes:     COMMON   BANK0   BANK1   BANK3   BANK2
  1644 ;;      Params:         0       0       0       0       0
  1645 ;;      Locals:         0       0       0       0       0
  1646 ;;      Temps:          0       0       0       0       0
  1647 ;;      Totals:         0       0       0       0       0
  1648 ;;Total ram usage:        0 bytes
  1649 ;; Hardware stack levels used:    1
  1650 ;; Hardware stack levels required when called:    1
  1651 ;; This function calls:
  1652 ;;		Nothing
  1653 ;; This function is called by:
  1654 ;;		_main
  1655 ;; This function uses a non-reentrant model
  1656 ;;
  1657                           
  1658                           
  1659                           ;psect for function _moverVentilador
  1660  07EF                     _moverVentilador:
  1661  07EF                     l1538:	
  1662                           ;incstack = 0
  1663                           ; Regs used in _moverVentilador: [wreg]
  1664                           
  1665  07EF  3000               	movlw	0
  1666  07F0  1283               	bcf	3,5	;RP0=0, select bank0
  1667  07F1  1303               	bcf	3,6	;RP1=0, select bank0
  1668  07F2  024F               	subwf	_T_byte1+1,w
  1669  07F3  301A               	movlw	26
  1670  07F4  1903               	skipnz
  1671  07F5  024E               	subwf	_T_byte1,w
  1672  07F6  1C03               	skipc
  1673  07F7  2FF9               	goto	u1241
  1674  07F8  2FFA               	goto	u1240
  1675  07F9                     u1241:
  1676  07F9  2FFC               	goto	l191
  1677  07FA                     u1240:
  1678  07FA                     l1540:
  1679  07FA  1405               	bsf	5,0	;volatile
  1680  07FB  2FFD               	goto	l193
  1681  07FC                     l191:
  1682  07FC  1005               	bcf	5,0	;volatile
  1683  07FD                     l193:
  1684  07FD  0008               	return
  1685  07FE                     __end_of_moverVentilador:
  1686                           
  1687                           	psect	text5
  1688  0EB5                     __ptext5:	
  1689 ;; *************** function _alarmaBuzzer *****************
  1690 ;; Defined at:
  1691 ;;		line 179 in file "master_main.c"
  1692 ;; Parameters:    Size  Location     Type
  1693 ;;		None
  1694 ;; Auto vars:     Size  Location     Type
  1695 ;;		None
  1696 ;; Return value:  Size  Location     Type
  1697 ;;                  1    wreg      void 
  1698 ;; Registers used:
  1699 ;;		wreg
  1700 ;; Tracked objects:
  1701 ;;		On entry : 0/0
  1702 ;;		On exit  : 0/0
  1703 ;;		Unchanged: 0/0
  1704 ;; Data sizes:     COMMON   BANK0   BANK1   BANK3   BANK2
  1705 ;;      Params:         0       0       0       0       0
  1706 ;;      Locals:         0       0       0       0       0
  1707 ;;      Temps:          3       0       0       0       0
  1708 ;;      Totals:         3       0       0       0       0
  1709 ;;Total ram usage:        3 bytes
  1710 ;; Hardware stack levels used:    1
  1711 ;; Hardware stack levels required when called:    1
  1712 ;; This function calls:
  1713 ;;		Nothing
  1714 ;; This function is called by:
  1715 ;;		_main
  1716 ;; This function uses a non-reentrant model
  1717 ;;
  1718                           
  1719                           
  1720                           ;psect for function _alarmaBuzzer
  1721  0EB5                     _alarmaBuzzer:
  1722  0EB5                     l1542:	
  1723                           ;incstack = 0
  1724                           ; Regs used in _alarmaBuzzer: [wreg]
  1725                           
  1726  0EB5  1283               	bcf	3,5	;RP0=0, select bank0
  1727  0EB6  1303               	bcf	3,6	;RP1=0, select bank0
  1728  0EB7  1485               	bsf	5,1	;volatile
  1729  0EB8                     l1544:
  1730  0EB8  3006               	movlw	6
  1731  0EB9  00F4               	movwf	??_alarmaBuzzer+2
  1732  0EBA  3013               	movlw	19
  1733  0EBB  00F3               	movwf	??_alarmaBuzzer+1
  1734  0EBC  30AD               	movlw	173
  1735  0EBD  00F2               	movwf	??_alarmaBuzzer
  1736  0EBE                     u1907:
  1737  0EBE  0BF2               	decfsz	??_alarmaBuzzer,f
  1738  0EBF  2EBE               	goto	u1907
  1739  0EC0  0BF3               	decfsz	??_alarmaBuzzer+1,f
  1740  0EC1  2EBE               	goto	u1907
  1741  0EC2  0BF4               	decfsz	??_alarmaBuzzer+2,f
  1742  0EC3  2EBE               	goto	u1907
  1743  0EC4  2EC5               	nop2
  1744  0EC5                     l1546:
  1745  0EC5  1283               	bcf	3,5	;RP0=0, select bank0
  1746  0EC6  1303               	bcf	3,6	;RP1=0, select bank0
  1747  0EC7  1085               	bcf	5,1	;volatile
  1748  0EC8                     l196:
  1749  0EC8  0008               	return
  1750  0EC9                     __end_of_alarmaBuzzer:
  1751                           
  1752                           	psect	text6
  1753  04F8                     __ptext6:	
  1754 ;; *************** function ___xxtofl *****************
  1755 ;; Defined at:
  1756 ;;		line 10 in file "C:\Program Files\Microchip\xc8\v2.31\pic\sources\c90\common\xxtofl.c"
  1757 ;; Parameters:    Size  Location     Type
  1758 ;;  sign            1    wreg     unsigned char 
  1759 ;;  val             4    2[COMMON] long 
  1760 ;; Auto vars:     Size  Location     Type
  1761 ;;  sign            1    0[BANK0 ] unsigned char 
  1762 ;;  arg             4    2[BANK0 ] unsigned long 
  1763 ;;  exp             1    1[BANK0 ] unsigned char 
  1764 ;; Return value:  Size  Location     Type
  1765 ;;                  4    2[COMMON] unsigned char 
  1766 ;; Registers used:
  1767 ;;		wreg, status,2, status,0
  1768 ;; Tracked objects:
  1769 ;;		On entry : 0/0
  1770 ;;		On exit  : 0/0
  1771 ;;		Unchanged: 0/0
  1772 ;; Data sizes:     COMMON   BANK0   BANK1   BANK3   BANK2
  1773 ;;      Params:         4       0       0       0       0
  1774 ;;      Locals:         0       6       0       0       0
  1775 ;;      Temps:          4       0       0       0       0
  1776 ;;      Totals:         8       6       0       0       0
  1777 ;;Total ram usage:       14 bytes
  1778 ;; Hardware stack levels used:    1
  1779 ;; Hardware stack levels required when called:    1
  1780 ;; This function calls:
  1781 ;;		Nothing
  1782 ;; This function is called by:
  1783 ;;		_main
  1784 ;; This function uses a non-reentrant model
  1785 ;;
  1786                           
  1787                           
  1788                           ;psect for function ___xxtofl
  1789  04F8                     ___xxtofl:
  1790                           
  1791                           ;incstack = 0
  1792                           ; Regs used in ___xxtofl: [wreg+status,2+status,0]
  1793                           ;___xxtofl@sign stored from wreg
  1794  04F8  1283               	bcf	3,5	;RP0=0, select bank0
  1795  04F9  1303               	bcf	3,6	;RP1=0, select bank0
  1796  04FA  00A0               	movwf	___xxtofl@sign
  1797  04FB                     l1740:
  1798  04FB  0820               	movf	___xxtofl@sign,w
  1799  04FC  1903               	btfsc	3,2
  1800  04FD  2CFF               	goto	u1721
  1801  04FE  2D00               	goto	u1720
  1802  04FF                     u1721:
  1803  04FF  2D14               	goto	l1746
  1804  0500                     u1720:
  1805  0500                     l1742:
  1806  0500  1FF5               	btfss	___xxtofl@val+3,7
  1807  0501  2D03               	goto	u1731
  1808  0502  2D04               	goto	u1730
  1809  0503                     u1731:
  1810  0503  2D14               	goto	l1746
  1811  0504                     u1730:
  1812  0504                     l1744:
  1813  0504  0972               	comf	___xxtofl@val,w
  1814  0505  00A2               	movwf	___xxtofl@arg
  1815  0506  0973               	comf	___xxtofl@val+1,w
  1816  0507  00A3               	movwf	___xxtofl@arg+1
  1817  0508  0974               	comf	___xxtofl@val+2,w
  1818  0509  00A4               	movwf	___xxtofl@arg+2
  1819  050A  0975               	comf	___xxtofl@val+3,w
  1820  050B  00A5               	movwf	___xxtofl@arg+3
  1821  050C  0AA2               	incf	___xxtofl@arg,f
  1822  050D  1903               	skipnz
  1823  050E  0AA3               	incf	___xxtofl@arg+1,f
  1824  050F  1903               	skipnz
  1825  0510  0AA4               	incf	___xxtofl@arg+2,f
  1826  0511  1903               	skipnz
  1827  0512  0AA5               	incf	___xxtofl@arg+3,f
  1828  0513  2D1C               	goto	l715
  1829  0514                     l1746:
  1830  0514  0875               	movf	___xxtofl@val+3,w
  1831  0515  00A5               	movwf	___xxtofl@arg+3
  1832  0516  0874               	movf	___xxtofl@val+2,w
  1833  0517  00A4               	movwf	___xxtofl@arg+2
  1834  0518  0873               	movf	___xxtofl@val+1,w
  1835  0519  00A3               	movwf	___xxtofl@arg+1
  1836  051A  0872               	movf	___xxtofl@val,w
  1837  051B  00A2               	movwf	___xxtofl@arg
  1838  051C                     l715:
  1839  051C  0875               	movf	___xxtofl@val+3,w
  1840  051D  0474               	iorwf	___xxtofl@val+2,w
  1841  051E  0473               	iorwf	___xxtofl@val+1,w
  1842  051F  0472               	iorwf	___xxtofl@val,w
  1843  0520  1D03               	skipz
  1844  0521  2D23               	goto	u1741
  1845  0522  2D24               	goto	u1740
  1846  0523                     u1741:
  1847  0523  2D2D               	goto	l1752
  1848  0524                     u1740:
  1849  0524                     l1748:
  1850  0524  3000               	movlw	0
  1851  0525  00F5               	movwf	?___xxtofl+3
  1852  0526  3000               	movlw	0
  1853  0527  00F4               	movwf	?___xxtofl+2
  1854  0528  3000               	movlw	0
  1855  0529  00F3               	movwf	?___xxtofl+1
  1856  052A  3000               	movlw	0
  1857  052B  00F2               	movwf	?___xxtofl
  1858  052C  2DB3               	goto	l717
  1859  052D                     l1752:
  1860  052D  3096               	movlw	150
  1861  052E  00F6               	movwf	??___xxtofl
  1862  052F  0876               	movf	??___xxtofl,w
  1863  0530  00A1               	movwf	___xxtofl@exp
  1864  0531  2D3F               	goto	l1756
  1865  0532                     l1754:
  1866  0532  3001               	movlw	1
  1867  0533  00F6               	movwf	??___xxtofl
  1868  0534  0876               	movf	??___xxtofl,w
  1869  0535  07A1               	addwf	___xxtofl@exp,f
  1870  0536  3001               	movlw	1
  1871  0537                     u1755:
  1872  0537  1003               	clrc
  1873  0538  0CA5               	rrf	___xxtofl@arg+3,f
  1874  0539  0CA4               	rrf	___xxtofl@arg+2,f
  1875  053A  0CA3               	rrf	___xxtofl@arg+1,f
  1876  053B  0CA2               	rrf	___xxtofl@arg,f
  1877  053C  3EFF               	addlw	-1
  1878  053D  1D03               	skipz
  1879  053E  2D37               	goto	u1755
  1880  053F                     l1756:
  1881  053F  30FE               	movlw	254
  1882  0540  0525               	andwf	___xxtofl@arg+3,w
  1883  0541  1D03               	btfss	3,2
  1884  0542  2D44               	goto	u1761
  1885  0543  2D45               	goto	u1760
  1886  0544                     u1761:
  1887  0544  2D32               	goto	l1754
  1888  0545                     u1760:
  1889  0545  2D61               	goto	l721
  1890  0546                     l1758:
  1891  0546  3001               	movlw	1
  1892  0547  00F6               	movwf	??___xxtofl
  1893  0548  0876               	movf	??___xxtofl,w
  1894  0549  07A1               	addwf	___xxtofl@exp,f
  1895  054A                     l1760:
  1896  054A  3001               	movlw	1
  1897  054B  07A2               	addwf	___xxtofl@arg,f
  1898  054C  3000               	movlw	0
  1899  054D  1803               	skipnc
  1900  054E  3001               	movlw	1
  1901  054F  07A3               	addwf	___xxtofl@arg+1,f
  1902  0550  3000               	movlw	0
  1903  0551  1803               	skipnc
  1904  0552  3001               	movlw	1
  1905  0553  07A4               	addwf	___xxtofl@arg+2,f
  1906  0554  3000               	movlw	0
  1907  0555  1803               	skipnc
  1908  0556  3001               	movlw	1
  1909  0557  07A5               	addwf	___xxtofl@arg+3,f
  1910  0558                     l1762:
  1911  0558  3001               	movlw	1
  1912  0559                     u1775:
  1913  0559  1003               	clrc
  1914  055A  0CA5               	rrf	___xxtofl@arg+3,f
  1915  055B  0CA4               	rrf	___xxtofl@arg+2,f
  1916  055C  0CA3               	rrf	___xxtofl@arg+1,f
  1917  055D  0CA2               	rrf	___xxtofl@arg,f
  1918  055E  3EFF               	addlw	-1
  1919  055F  1D03               	skipz
  1920  0560  2D59               	goto	u1775
  1921  0561                     l721:
  1922  0561  30FF               	movlw	255
  1923  0562  0525               	andwf	___xxtofl@arg+3,w
  1924  0563  1D03               	btfss	3,2
  1925  0564  2D66               	goto	u1781
  1926  0565  2D67               	goto	u1780
  1927  0566                     u1781:
  1928  0566  2D46               	goto	l1758
  1929  0567                     u1780:
  1930  0567  2D73               	goto	l1766
  1931  0568                     l1764:
  1932  0568  3001               	movlw	1
  1933  0569  02A1               	subwf	___xxtofl@exp,f
  1934  056A  3001               	movlw	1
  1935  056B  00F6               	movwf	??___xxtofl
  1936  056C                     u1795:
  1937  056C  1003               	clrc
  1938  056D  0DA2               	rlf	___xxtofl@arg,f
  1939  056E  0DA3               	rlf	___xxtofl@arg+1,f
  1940  056F  0DA4               	rlf	___xxtofl@arg+2,f
  1941  0570  0DA5               	rlf	___xxtofl@arg+3,f
  1942  0571  0BF6               	decfsz	??___xxtofl,f
  1943  0572  2D6C               	goto	u1795
  1944  0573                     l1766:
  1945  0573  1BA4               	btfsc	___xxtofl@arg+2,7
  1946  0574  2D76               	goto	u1801
  1947  0575  2D77               	goto	u1800
  1948  0576                     u1801:
  1949  0576  2D7D               	goto	l728
  1950  0577                     u1800:
  1951  0577                     l1768:
  1952  0577  3002               	movlw	2
  1953  0578  0221               	subwf	___xxtofl@exp,w
  1954  0579  1803               	skipnc
  1955  057A  2D7C               	goto	u1811
  1956  057B  2D7D               	goto	u1810
  1957  057C                     u1811:
  1958  057C  2D68               	goto	l1764
  1959  057D                     u1810:
  1960  057D                     l728:
  1961  057D  1821               	btfsc	___xxtofl@exp,0
  1962  057E  2D80               	goto	u1821
  1963  057F  2D81               	goto	u1820
  1964  0580                     u1821:
  1965  0580  2D89               	goto	l729
  1966  0581                     u1820:
  1967  0581                     l1770:
  1968  0581  30FF               	movlw	255
  1969  0582  05A2               	andwf	___xxtofl@arg,f
  1970  0583  30FF               	movlw	255
  1971  0584  05A3               	andwf	___xxtofl@arg+1,f
  1972  0585  307F               	movlw	127
  1973  0586  05A4               	andwf	___xxtofl@arg+2,f
  1974  0587  30FF               	movlw	255
  1975  0588  05A5               	andwf	___xxtofl@arg+3,f
  1976  0589                     l729:
  1977  0589  1003               	clrc
  1978  058A  0CA1               	rrf	___xxtofl@exp,f
  1979  058B                     l1772:
  1980  058B  0821               	movf	___xxtofl@exp,w
  1981  058C  00F6               	movwf	??___xxtofl
  1982  058D  01F7               	clrf	??___xxtofl+1
  1983  058E  01F8               	clrf	??___xxtofl+2
  1984  058F  01F9               	clrf	??___xxtofl+3
  1985  0590  3018               	movlw	24
  1986  0591                     u1835:
  1987  0591  1003               	clrc
  1988  0592  0DF6               	rlf	??___xxtofl,f
  1989  0593  0DF7               	rlf	??___xxtofl+1,f
  1990  0594  0DF8               	rlf	??___xxtofl+2,f
  1991  0595  0DF9               	rlf	??___xxtofl+3,f
  1992  0596                     u1830:
  1993  0596  3EFF               	addlw	-1
  1994  0597  1D03               	skipz
  1995  0598  2D91               	goto	u1835
  1996  0599  0876               	movf	??___xxtofl,w
  1997  059A  04A2               	iorwf	___xxtofl@arg,f
  1998  059B  0877               	movf	??___xxtofl+1,w
  1999  059C  04A3               	iorwf	___xxtofl@arg+1,f
  2000  059D  0878               	movf	??___xxtofl+2,w
  2001  059E  04A4               	iorwf	___xxtofl@arg+2,f
  2002  059F  0879               	movf	??___xxtofl+3,w
  2003  05A0  04A5               	iorwf	___xxtofl@arg+3,f
  2004  05A1                     l1774:
  2005  05A1  0820               	movf	___xxtofl@sign,w
  2006  05A2  1903               	btfsc	3,2
  2007  05A3  2DA5               	goto	u1841
  2008  05A4  2DA6               	goto	u1840
  2009  05A5                     u1841:
  2010  05A5  2DAB               	goto	l1780
  2011  05A6                     u1840:
  2012  05A6                     l1776:
  2013  05A6  1FF5               	btfss	___xxtofl@val+3,7
  2014  05A7  2DA9               	goto	u1851
  2015  05A8  2DAA               	goto	u1850
  2016  05A9                     u1851:
  2017  05A9  2DAB               	goto	l1780
  2018  05AA                     u1850:
  2019  05AA                     l1778:
  2020  05AA  17A5               	bsf	___xxtofl@arg+3,7
  2021  05AB                     l1780:
  2022  05AB  0825               	movf	___xxtofl@arg+3,w
  2023  05AC  00F5               	movwf	?___xxtofl+3
  2024  05AD  0824               	movf	___xxtofl@arg+2,w
  2025  05AE  00F4               	movwf	?___xxtofl+2
  2026  05AF  0823               	movf	___xxtofl@arg+1,w
  2027  05B0  00F3               	movwf	?___xxtofl+1
  2028  05B1  0822               	movf	___xxtofl@arg,w
  2029  05B2  00F2               	movwf	?___xxtofl
  2030  05B3                     l717:
  2031  05B3  0008               	return
  2032  05B4                     __end_of___xxtofl:
  2033                           
  2034                           	psect	text7
  2035  05B4                     __ptext7:	
  2036 ;; *************** function ___fltol *****************
  2037 ;; Defined at:
  2038 ;;		line 43 in file "C:\Program Files\Microchip\xc8\v2.31\pic\sources\c90\common\fltol.c"
  2039 ;; Parameters:    Size  Location     Type
  2040 ;;  f1              4   32[BANK0 ] unsigned char 
  2041 ;; Auto vars:     Size  Location     Type
  2042 ;;  exp1            1   42[BANK0 ] unsigned char 
  2043 ;;  sign1           1   41[BANK0 ] unsigned char 
  2044 ;; Return value:  Size  Location     Type
  2045 ;;                  4   32[BANK0 ] long 
  2046 ;; Registers used:
  2047 ;;		wreg, status,2, status,0
  2048 ;; Tracked objects:
  2049 ;;		On entry : 0/0
  2050 ;;		On exit  : 0/0
  2051 ;;		Unchanged: 0/0
  2052 ;; Data sizes:     COMMON   BANK0   BANK1   BANK3   BANK2
  2053 ;;      Params:         0       4       0       0       0
  2054 ;;      Locals:         0       2       0       0       0
  2055 ;;      Temps:          0       5       0       0       0
  2056 ;;      Totals:         0      11       0       0       0
  2057 ;;Total ram usage:       11 bytes
  2058 ;; Hardware stack levels used:    1
  2059 ;; Hardware stack levels required when called:    1
  2060 ;; This function calls:
  2061 ;;		Nothing
  2062 ;; This function is called by:
  2063 ;;		_main
  2064 ;; This function uses a non-reentrant model
  2065 ;;
  2066                           
  2067                           
  2068                           ;psect for function ___fltol
  2069  05B4                     ___fltol:
  2070  05B4                     l1564:	
  2071                           ;incstack = 0
  2072                           ; Regs used in ___fltol: [wreg+status,2+status,0]
  2073                           
  2074  05B4  1003               	clrc
  2075  05B5  1283               	bcf	3,5	;RP0=0, select bank0
  2076  05B6  1303               	bcf	3,6	;RP1=0, select bank0
  2077  05B7  0D42               	rlf	___fltol@f1+2,w
  2078  05B8  0D43               	rlf	___fltol@f1+3,w
  2079  05B9  00C4               	movwf	??___fltol
  2080  05BA  0844               	movf	??___fltol,w
  2081  05BB  00CA               	movwf	___fltol@exp1
  2082  05BC  084A               	movf	___fltol@exp1,w
  2083  05BD  1D03               	btfss	3,2
  2084  05BE  2DC0               	goto	u1251
  2085  05BF  2DC1               	goto	u1250
  2086  05C0                     u1251:
  2087  05C0  2DCA               	goto	l1570
  2088  05C1                     u1250:
  2089  05C1                     l1566:
  2090  05C1  3000               	movlw	0
  2091  05C2  00C3               	movwf	?___fltol+3
  2092  05C3  3000               	movlw	0
  2093  05C4  00C2               	movwf	?___fltol+2
  2094  05C5  3000               	movlw	0
  2095  05C6  00C1               	movwf	?___fltol+1
  2096  05C7  3000               	movlw	0
  2097  05C8  00C0               	movwf	?___fltol
  2098  05C9  2E2F               	goto	l468
  2099  05CA                     l1570:
  2100  05CA  0840               	movf	___fltol@f1,w
  2101  05CB  00C4               	movwf	??___fltol
  2102  05CC  0841               	movf	___fltol@f1+1,w
  2103  05CD  00C5               	movwf	??___fltol+1
  2104  05CE  0842               	movf	___fltol@f1+2,w
  2105  05CF  00C6               	movwf	??___fltol+2
  2106  05D0  0843               	movf	___fltol@f1+3,w
  2107  05D1  00C7               	movwf	??___fltol+3
  2108  05D2  301F               	movlw	31
  2109  05D3                     u1265:
  2110  05D3  1003               	clrc
  2111  05D4  0CC7               	rrf	??___fltol+3,f
  2112  05D5  0CC6               	rrf	??___fltol+2,f
  2113  05D6  0CC5               	rrf	??___fltol+1,f
  2114  05D7  0CC4               	rrf	??___fltol,f
  2115  05D8                     u1260:
  2116  05D8  3EFF               	addlw	-1
  2117  05D9  1D03               	skipz
  2118  05DA  2DD3               	goto	u1265
  2119  05DB  0844               	movf	??___fltol,w
  2120  05DC  00C8               	movwf	??___fltol+4
  2121  05DD  0848               	movf	??___fltol+4,w
  2122  05DE  00C9               	movwf	___fltol@sign1
  2123  05DF                     l1572:
  2124  05DF  17C2               	bsf	___fltol@f1+2,7
  2125  05E0                     l1574:
  2126  05E0  30FF               	movlw	255
  2127  05E1  05C0               	andwf	___fltol@f1,f
  2128  05E2  30FF               	movlw	255
  2129  05E3  05C1               	andwf	___fltol@f1+1,f
  2130  05E4  30FF               	movlw	255
  2131  05E5  05C2               	andwf	___fltol@f1+2,f
  2132  05E6  3000               	movlw	0
  2133  05E7  05C3               	andwf	___fltol@f1+3,f
  2134  05E8                     l1576:
  2135  05E8  3096               	movlw	150
  2136  05E9  02CA               	subwf	___fltol@exp1,f
  2137  05EA                     l1578:
  2138  05EA  1FCA               	btfss	___fltol@exp1,7
  2139  05EB  2DED               	goto	u1271
  2140  05EC  2DEE               	goto	u1270
  2141  05ED                     u1271:
  2142  05ED  2E08               	goto	l1588
  2143  05EE                     u1270:
  2144  05EE                     l1580:
  2145  05EE  084A               	movf	___fltol@exp1,w
  2146  05EF  3A80               	xorlw	128
  2147  05F0  3E97               	addlw	151
  2148  05F1  1803               	skipnc
  2149  05F2  2DF4               	goto	u1281
  2150  05F3  2DF5               	goto	u1280
  2151  05F4                     u1281:
  2152  05F4  2DF6               	goto	l1586
  2153  05F5                     u1280:
  2154  05F5  2DC1               	goto	l1566
  2155  05F6                     l1586:
  2156  05F6  3001               	movlw	1
  2157  05F7                     u1295:
  2158  05F7  1003               	clrc
  2159  05F8  0CC3               	rrf	___fltol@f1+3,f
  2160  05F9  0CC2               	rrf	___fltol@f1+2,f
  2161  05FA  0CC1               	rrf	___fltol@f1+1,f
  2162  05FB  0CC0               	rrf	___fltol@f1,f
  2163  05FC  3EFF               	addlw	-1
  2164  05FD  1D03               	skipz
  2165  05FE  2DF7               	goto	u1295
  2166  05FF  3001               	movlw	1
  2167  0600  00C4               	movwf	??___fltol
  2168  0601  0844               	movf	??___fltol,w
  2169  0602  07CA               	addwf	___fltol@exp1,f
  2170  0603  1D03               	btfss	3,2
  2171  0604  2E06               	goto	u1301
  2172  0605  2E07               	goto	u1300
  2173  0606                     u1301:
  2174  0606  2DF6               	goto	l1586
  2175  0607                     u1300:
  2176  0607  2E1F               	goto	l1596
  2177  0608                     l1588:
  2178  0608  3020               	movlw	32
  2179  0609  024A               	subwf	___fltol@exp1,w
  2180  060A  1C03               	skipc
  2181  060B  2E0D               	goto	u1311
  2182  060C  2E0E               	goto	u1310
  2183  060D                     u1311:
  2184  060D  2E1A               	goto	l475
  2185  060E                     u1310:
  2186  060E  2DC1               	goto	l1566
  2187  060F                     l1594:
  2188  060F  3001               	movlw	1
  2189  0610  00C4               	movwf	??___fltol
  2190  0611                     u1325:
  2191  0611  1003               	clrc
  2192  0612  0DC0               	rlf	___fltol@f1,f
  2193  0613  0DC1               	rlf	___fltol@f1+1,f
  2194  0614  0DC2               	rlf	___fltol@f1+2,f
  2195  0615  0DC3               	rlf	___fltol@f1+3,f
  2196  0616  0BC4               	decfsz	??___fltol,f
  2197  0617  2E11               	goto	u1325
  2198  0618  3001               	movlw	1
  2199  0619  02CA               	subwf	___fltol@exp1,f
  2200  061A                     l475:
  2201  061A  084A               	movf	___fltol@exp1,w
  2202  061B  1D03               	btfss	3,2
  2203  061C  2E1E               	goto	u1331
  2204  061D  2E1F               	goto	u1330
  2205  061E                     u1331:
  2206  061E  2E0F               	goto	l1594
  2207  061F                     u1330:
  2208  061F                     l1596:
  2209  061F  0849               	movf	___fltol@sign1,w
  2210  0620  1903               	btfsc	3,2
  2211  0621  2E23               	goto	u1341
  2212  0622  2E24               	goto	u1340
  2213  0623                     u1341:
  2214  0623  2E2F               	goto	l478
  2215  0624                     u1340:
  2216  0624                     l1598:
  2217  0624  09C0               	comf	___fltol@f1,f
  2218  0625  09C1               	comf	___fltol@f1+1,f
  2219  0626  09C2               	comf	___fltol@f1+2,f
  2220  0627  09C3               	comf	___fltol@f1+3,f
  2221  0628  0AC0               	incf	___fltol@f1,f
  2222  0629  1903               	skipnz
  2223  062A  0AC1               	incf	___fltol@f1+1,f
  2224  062B  1903               	skipnz
  2225  062C  0AC2               	incf	___fltol@f1+2,f
  2226  062D  1903               	skipnz
  2227  062E  0AC3               	incf	___fltol@f1+3,f
  2228  062F                     l478:
  2229  062F                     l468:
  2230  062F  0008               	return
  2231  0630                     __end_of___fltol:
  2232                           
  2233                           	psect	text8
  2234  001F                     __ptext8:	
  2235 ;; *************** function ___flmul *****************
  2236 ;; Defined at:
  2237 ;;		line 8 in file "C:\Program Files\Microchip\xc8\v2.31\pic\sources\c90\common\sprcmul.c"
  2238 ;; Parameters:    Size  Location     Type
  2239 ;;  b               4    6[BANK0 ] long 
  2240 ;;  a               4   10[BANK0 ] long 
  2241 ;; Auto vars:     Size  Location     Type
  2242 ;;  prod            4   26[BANK0 ] struct .
  2243 ;;  grs             4   20[BANK0 ] unsigned long 
  2244 ;;  temp            2   30[BANK0 ] struct .
  2245 ;;  bexp            1   25[BANK0 ] unsigned char 
  2246 ;;  aexp            1   24[BANK0 ] unsigned char 
  2247 ;;  sign            1   19[BANK0 ] unsigned char 
  2248 ;; Return value:  Size  Location     Type
  2249 ;;                  4    6[BANK0 ] unsigned char 
  2250 ;; Registers used:
  2251 ;;		wreg, status,2, status,0, btemp+1, pclath, cstack
  2252 ;; Tracked objects:
  2253 ;;		On entry : 0/0
  2254 ;;		On exit  : 0/0
  2255 ;;		Unchanged: 0/0
  2256 ;; Data sizes:     COMMON   BANK0   BANK1   BANK3   BANK2
  2257 ;;      Params:         0       8       0       0       0
  2258 ;;      Locals:         0      13       0       0       0
  2259 ;;      Temps:          0       5       0       0       0
  2260 ;;      Totals:         0      26       0       0       0
  2261 ;;Total ram usage:       26 bytes
  2262 ;; Hardware stack levels used:    1
  2263 ;; Hardware stack levels required when called:    2
  2264 ;; This function calls:
  2265 ;;		__Umul8_16
  2266 ;; This function is called by:
  2267 ;;		_main
  2268 ;; This function uses a non-reentrant model
  2269 ;;
  2270                           
  2271                           
  2272                           ;psect for function ___flmul
  2273  001F                     ___flmul:
  2274  001F                     l1600:	
  2275                           ;incstack = 0
  2276                           ; Regs used in ___flmul: [wreg+status,2+status,0+btemp+1+pclath+cstack]
  2277                           
  2278  001F  1283               	bcf	3,5	;RP0=0, select bank0
  2279  0020  1303               	bcf	3,6	;RP1=0, select bank0
  2280  0021  0829               	movf	___flmul@b+3,w
  2281  0022  3980               	andlw	128
  2282  0023  00AE               	movwf	??___flmul
  2283  0024  082E               	movf	??___flmul,w
  2284  0025  00B3               	movwf	___flmul@sign
  2285  0026                     l1602:
  2286  0026  0829               	movf	___flmul@b+3,w
  2287  0027  00AE               	movwf	??___flmul
  2288  0028  072E               	addwf	??___flmul,w
  2289  0029  00AF               	movwf	??___flmul+1
  2290  002A  082F               	movf	??___flmul+1,w
  2291  002B  00B9               	movwf	___flmul@bexp
  2292  002C                     l1604:
  2293  002C  1FA8               	btfss	___flmul@b+2,7
  2294  002D  282F               	goto	u1351
  2295  002E  2830               	goto	u1350
  2296  002F                     u1351:
  2297  002F  2831               	goto	l1608
  2298  0030                     u1350:
  2299  0030                     l1606:
  2300  0030  1439               	bsf	___flmul@bexp,0
  2301  0031                     l1608:
  2302  0031  0839               	movf	___flmul@bexp,w
  2303  0032  1903               	btfsc	3,2
  2304  0033  2835               	goto	u1361
  2305  0034  2836               	goto	u1360
  2306  0035                     u1361:
  2307  0035  2845               	goto	l1616
  2308  0036                     u1360:
  2309  0036                     l1610:
  2310  0036  0A39               	incf	___flmul@bexp,w
  2311  0037  1D03               	btfss	3,2
  2312  0038  283A               	goto	u1371
  2313  0039  283B               	goto	u1370
  2314  003A                     u1371:
  2315  003A  2843               	goto	l1614
  2316  003B                     u1370:
  2317  003B                     l1612:
  2318  003B  3000               	movlw	0
  2319  003C  00A9               	movwf	___flmul@b+3
  2320  003D  3000               	movlw	0
  2321  003E  00A8               	movwf	___flmul@b+2
  2322  003F  3000               	movlw	0
  2323  0040  00A7               	movwf	___flmul@b+1
  2324  0041  3000               	movlw	0
  2325  0042  00A6               	movwf	___flmul@b
  2326  0043                     l1614:
  2327  0043  17A8               	bsf	___flmul@b+2,7
  2328  0044  284D               	goto	l1618
  2329  0045                     l1616:
  2330  0045  3000               	movlw	0
  2331  0046  00A9               	movwf	___flmul@b+3
  2332  0047  3000               	movlw	0
  2333  0048  00A8               	movwf	___flmul@b+2
  2334  0049  3000               	movlw	0
  2335  004A  00A7               	movwf	___flmul@b+1
  2336  004B  3000               	movlw	0
  2337  004C  00A6               	movwf	___flmul@b
  2338  004D                     l1618:
  2339  004D  082D               	movf	___flmul@a+3,w
  2340  004E  3980               	andlw	128
  2341  004F  00AE               	movwf	??___flmul
  2342  0050  082E               	movf	??___flmul,w
  2343  0051  06B3               	xorwf	___flmul@sign,f
  2344  0052                     l1620:
  2345  0052  082D               	movf	___flmul@a+3,w
  2346  0053  00AE               	movwf	??___flmul
  2347  0054  072E               	addwf	??___flmul,w
  2348  0055  00AF               	movwf	??___flmul+1
  2349  0056  082F               	movf	??___flmul+1,w
  2350  0057  00B8               	movwf	___flmul@aexp
  2351  0058                     l1622:
  2352  0058  1FAC               	btfss	___flmul@a+2,7
  2353  0059  285B               	goto	u1381
  2354  005A  285C               	goto	u1380
  2355  005B                     u1381:
  2356  005B  285D               	goto	l1626
  2357  005C                     u1380:
  2358  005C                     l1624:
  2359  005C  1438               	bsf	___flmul@aexp,0
  2360  005D                     l1626:
  2361  005D  0838               	movf	___flmul@aexp,w
  2362  005E  1903               	btfsc	3,2
  2363  005F  2861               	goto	u1391
  2364  0060  2862               	goto	u1390
  2365  0061                     u1391:
  2366  0061  2871               	goto	l1634
  2367  0062                     u1390:
  2368  0062                     l1628:
  2369  0062  0A38               	incf	___flmul@aexp,w
  2370  0063  1D03               	btfss	3,2
  2371  0064  2866               	goto	u1401
  2372  0065  2867               	goto	u1400
  2373  0066                     u1401:
  2374  0066  286F               	goto	l1632
  2375  0067                     u1400:
  2376  0067                     l1630:
  2377  0067  3000               	movlw	0
  2378  0068  00AD               	movwf	___flmul@a+3
  2379  0069  3000               	movlw	0
  2380  006A  00AC               	movwf	___flmul@a+2
  2381  006B  3000               	movlw	0
  2382  006C  00AB               	movwf	___flmul@a+1
  2383  006D  3000               	movlw	0
  2384  006E  00AA               	movwf	___flmul@a
  2385  006F                     l1632:
  2386  006F  17AC               	bsf	___flmul@a+2,7
  2387  0070  2879               	goto	l1636
  2388  0071                     l1634:
  2389  0071  3000               	movlw	0
  2390  0072  00AD               	movwf	___flmul@a+3
  2391  0073  3000               	movlw	0
  2392  0074  00AC               	movwf	___flmul@a+2
  2393  0075  3000               	movlw	0
  2394  0076  00AB               	movwf	___flmul@a+1
  2395  0077  3000               	movlw	0
  2396  0078  00AA               	movwf	___flmul@a
  2397  0079                     l1636:
  2398  0079  0838               	movf	___flmul@aexp,w
  2399  007A  1903               	btfsc	3,2
  2400  007B  287D               	goto	u1411
  2401  007C  287E               	goto	u1410
  2402  007D                     u1411:
  2403  007D  2883               	goto	l1640
  2404  007E                     u1410:
  2405  007E                     l1638:
  2406  007E  0839               	movf	___flmul@bexp,w
  2407  007F  1D03               	btfss	3,2
  2408  0080  2882               	goto	u1421
  2409  0081  2883               	goto	u1420
  2410  0082                     u1421:
  2411  0082  288C               	goto	l1644
  2412  0083                     u1420:
  2413  0083                     l1640:
  2414  0083  3000               	movlw	0
  2415  0084  00A9               	movwf	?___flmul+3
  2416  0085  3000               	movlw	0
  2417  0086  00A8               	movwf	?___flmul+2
  2418  0087  3000               	movlw	0
  2419  0088  00A7               	movwf	?___flmul+1
  2420  0089  3000               	movlw	0
  2421  008A  00A6               	movwf	?___flmul
  2422  008B  2B7F               	goto	l671
  2423  008C                     l1644:
  2424  008C  0826               	movf	___flmul@b,w
  2425  008D  00AE               	movwf	??___flmul
  2426  008E  082E               	movf	??___flmul,w
  2427  008F  00F2               	movwf	__Umul8_16@multiplicand
  2428  0090  082C               	movf	___flmul@a+2,w
  2429  0091  120A  158A  274A  120A  118A  	fcall	__Umul8_16
  2430  0096  0873               	movf	?__Umul8_16+1,w
  2431  0097  1283               	bcf	3,5	;RP0=0, select bank0
  2432  0098  1303               	bcf	3,6	;RP1=0, select bank0
  2433  0099  00BF               	movwf	___flmul@temp+1
  2434  009A  0872               	movf	?__Umul8_16,w
  2435  009B  00BE               	movwf	___flmul@temp
  2436  009C                     l1646:
  2437  009C  083E               	movf	___flmul@temp,w
  2438  009D  00AE               	movwf	??___flmul
  2439  009E  01AF               	clrf	??___flmul+1
  2440  009F  01B0               	clrf	??___flmul+2
  2441  00A0  01B1               	clrf	??___flmul+3
  2442  00A1  0831               	movf	??___flmul+3,w
  2443  00A2  00B7               	movwf	___flmul@grs+3
  2444  00A3  0830               	movf	??___flmul+2,w
  2445  00A4  00B6               	movwf	___flmul@grs+2
  2446  00A5  082F               	movf	??___flmul+1,w
  2447  00A6  00B5               	movwf	___flmul@grs+1
  2448  00A7  082E               	movf	??___flmul,w
  2449  00A8  00B4               	movwf	___flmul@grs
  2450  00A9                     l1648:
  2451  00A9  083F               	movf	___flmul@temp+1,w
  2452  00AA  00AE               	movwf	??___flmul
  2453  00AB  01AF               	clrf	??___flmul+1
  2454  00AC  01B0               	clrf	??___flmul+2
  2455  00AD  01B1               	clrf	??___flmul+3
  2456  00AE  0831               	movf	??___flmul+3,w
  2457  00AF  00BD               	movwf	___flmul@prod+3
  2458  00B0  0830               	movf	??___flmul+2,w
  2459  00B1  00BC               	movwf	___flmul@prod+2
  2460  00B2  082F               	movf	??___flmul+1,w
  2461  00B3  00BB               	movwf	___flmul@prod+1
  2462  00B4  082E               	movf	??___flmul,w
  2463  00B5  00BA               	movwf	___flmul@prod
  2464  00B6  0827               	movf	___flmul@b+1,w
  2465  00B7  00AE               	movwf	??___flmul
  2466  00B8  082E               	movf	??___flmul,w
  2467  00B9  00F2               	movwf	__Umul8_16@multiplicand
  2468  00BA  082B               	movf	___flmul@a+1,w
  2469  00BB  120A  158A  274A  120A  118A  	fcall	__Umul8_16
  2470  00C0  0873               	movf	?__Umul8_16+1,w
  2471  00C1  1283               	bcf	3,5	;RP0=0, select bank0
  2472  00C2  1303               	bcf	3,6	;RP1=0, select bank0
  2473  00C3  00BF               	movwf	___flmul@temp+1
  2474  00C4  0872               	movf	?__Umul8_16,w
  2475  00C5  00BE               	movwf	___flmul@temp
  2476  00C6                     l1650:
  2477  00C6  083E               	movf	___flmul@temp,w
  2478  00C7  00AE               	movwf	??___flmul
  2479  00C8  01AF               	clrf	??___flmul+1
  2480  00C9  01B0               	clrf	??___flmul+2
  2481  00CA  01B1               	clrf	??___flmul+3
  2482  00CB  082E               	movf	??___flmul,w
  2483  00CC  07B4               	addwf	___flmul@grs,f
  2484  00CD  082F               	movf	??___flmul+1,w
  2485  00CE  1103               	clrz
  2486  00CF  1803               	skipnc
  2487  00D0  3E01               	addlw	1
  2488  00D1  1903               	skipnz
  2489  00D2  28D4               	goto	u1431
  2490  00D3  07B5               	addwf	___flmul@grs+1,f
  2491  00D4                     u1431:
  2492  00D4  0830               	movf	??___flmul+2,w
  2493  00D5  1103               	clrz
  2494  00D6  1803               	skipnc
  2495  00D7  3E01               	addlw	1
  2496  00D8  1903               	skipnz
  2497  00D9  28DB               	goto	u1432
  2498  00DA  07B6               	addwf	___flmul@grs+2,f
  2499  00DB                     u1432:
  2500  00DB  0831               	movf	??___flmul+3,w
  2501  00DC  1103               	clrz
  2502  00DD  1803               	skipnc
  2503  00DE  3E01               	addlw	1
  2504  00DF  1903               	skipnz
  2505  00E0  28E2               	goto	u1433
  2506  00E1  07B7               	addwf	___flmul@grs+3,f
  2507  00E2                     u1433:
  2508  00E2                     l1652:
  2509  00E2  083F               	movf	___flmul@temp+1,w
  2510  00E3  00AE               	movwf	??___flmul
  2511  00E4  01AF               	clrf	??___flmul+1
  2512  00E5  01B0               	clrf	??___flmul+2
  2513  00E6  01B1               	clrf	??___flmul+3
  2514  00E7  082E               	movf	??___flmul,w
  2515  00E8  07BA               	addwf	___flmul@prod,f
  2516  00E9  082F               	movf	??___flmul+1,w
  2517  00EA  1103               	clrz
  2518  00EB  1803               	skipnc
  2519  00EC  3E01               	addlw	1
  2520  00ED  1903               	skipnz
  2521  00EE  28F0               	goto	u1441
  2522  00EF  07BB               	addwf	___flmul@prod+1,f
  2523  00F0                     u1441:
  2524  00F0  0830               	movf	??___flmul+2,w
  2525  00F1  1103               	clrz
  2526  00F2  1803               	skipnc
  2527  00F3  3E01               	addlw	1
  2528  00F4  1903               	skipnz
  2529  00F5  28F7               	goto	u1442
  2530  00F6  07BC               	addwf	___flmul@prod+2,f
  2531  00F7                     u1442:
  2532  00F7  0831               	movf	??___flmul+3,w
  2533  00F8  1103               	clrz
  2534  00F9  1803               	skipnc
  2535  00FA  3E01               	addlw	1
  2536  00FB  1903               	skipnz
  2537  00FC  28FE               	goto	u1443
  2538  00FD  07BD               	addwf	___flmul@prod+3,f
  2539  00FE                     u1443:
  2540  00FE  0828               	movf	___flmul@b+2,w
  2541  00FF  00AE               	movwf	??___flmul
  2542  0100  082E               	movf	??___flmul,w
  2543  0101  00F2               	movwf	__Umul8_16@multiplicand
  2544  0102  082A               	movf	___flmul@a,w
  2545  0103  120A  158A  274A  120A  118A  	fcall	__Umul8_16
  2546  0108  0873               	movf	?__Umul8_16+1,w
  2547  0109  1283               	bcf	3,5	;RP0=0, select bank0
  2548  010A  1303               	bcf	3,6	;RP1=0, select bank0
  2549  010B  00BF               	movwf	___flmul@temp+1
  2550  010C  0872               	movf	?__Umul8_16,w
  2551  010D  00BE               	movwf	___flmul@temp
  2552  010E                     l1654:
  2553  010E  083E               	movf	___flmul@temp,w
  2554  010F  00AE               	movwf	??___flmul
  2555  0110  01AF               	clrf	??___flmul+1
  2556  0111  01B0               	clrf	??___flmul+2
  2557  0112  01B1               	clrf	??___flmul+3
  2558  0113  082E               	movf	??___flmul,w
  2559  0114  07B4               	addwf	___flmul@grs,f
  2560  0115  082F               	movf	??___flmul+1,w
  2561  0116  1103               	clrz
  2562  0117  1803               	skipnc
  2563  0118  3E01               	addlw	1
  2564  0119  1903               	skipnz
  2565  011A  291C               	goto	u1451
  2566  011B  07B5               	addwf	___flmul@grs+1,f
  2567  011C                     u1451:
  2568  011C  0830               	movf	??___flmul+2,w
  2569  011D  1103               	clrz
  2570  011E  1803               	skipnc
  2571  011F  3E01               	addlw	1
  2572  0120  1903               	skipnz
  2573  0121  2923               	goto	u1452
  2574  0122  07B6               	addwf	___flmul@grs+2,f
  2575  0123                     u1452:
  2576  0123  0831               	movf	??___flmul+3,w
  2577  0124  1103               	clrz
  2578  0125  1803               	skipnc
  2579  0126  3E01               	addlw	1
  2580  0127  1903               	skipnz
  2581  0128  292A               	goto	u1453
  2582  0129  07B7               	addwf	___flmul@grs+3,f
  2583  012A                     u1453:
  2584  012A                     l1656:
  2585  012A  083F               	movf	___flmul@temp+1,w
  2586  012B  00AE               	movwf	??___flmul
  2587  012C  01AF               	clrf	??___flmul+1
  2588  012D  01B0               	clrf	??___flmul+2
  2589  012E  01B1               	clrf	??___flmul+3
  2590  012F  082E               	movf	??___flmul,w
  2591  0130  07BA               	addwf	___flmul@prod,f
  2592  0131  082F               	movf	??___flmul+1,w
  2593  0132  1103               	clrz
  2594  0133  1803               	skipnc
  2595  0134  3E01               	addlw	1
  2596  0135  1903               	skipnz
  2597  0136  2938               	goto	u1461
  2598  0137  07BB               	addwf	___flmul@prod+1,f
  2599  0138                     u1461:
  2600  0138  0830               	movf	??___flmul+2,w
  2601  0139  1103               	clrz
  2602  013A  1803               	skipnc
  2603  013B  3E01               	addlw	1
  2604  013C  1903               	skipnz
  2605  013D  293F               	goto	u1462
  2606  013E  07BC               	addwf	___flmul@prod+2,f
  2607  013F                     u1462:
  2608  013F  0831               	movf	??___flmul+3,w
  2609  0140  1103               	clrz
  2610  0141  1803               	skipnc
  2611  0142  3E01               	addlw	1
  2612  0143  1903               	skipnz
  2613  0144  2946               	goto	u1463
  2614  0145  07BD               	addwf	___flmul@prod+3,f
  2615  0146                     u1463:
  2616  0146                     l1658:
  2617  0146  3008               	movlw	8
  2618  0147  00AE               	movwf	??___flmul
  2619  0148                     u1475:
  2620  0148  1003               	clrc
  2621  0149  0DB4               	rlf	___flmul@grs,f
  2622  014A  0DB5               	rlf	___flmul@grs+1,f
  2623  014B  0DB6               	rlf	___flmul@grs+2,f
  2624  014C  0DB7               	rlf	___flmul@grs+3,f
  2625  014D  0BAE               	decfsz	??___flmul,f
  2626  014E  2948               	goto	u1475
  2627  014F                     l1660:
  2628  014F  0827               	movf	___flmul@b+1,w
  2629  0150  00AE               	movwf	??___flmul
  2630  0151  082E               	movf	??___flmul,w
  2631  0152  00F2               	movwf	__Umul8_16@multiplicand
  2632  0153  082A               	movf	___flmul@a,w
  2633  0154  120A  158A  274A  120A  118A  	fcall	__Umul8_16
  2634  0159  0873               	movf	?__Umul8_16+1,w
  2635  015A  1283               	bcf	3,5	;RP0=0, select bank0
  2636  015B  1303               	bcf	3,6	;RP1=0, select bank0
  2637  015C  00BF               	movwf	___flmul@temp+1
  2638  015D  0872               	movf	?__Umul8_16,w
  2639  015E  00BE               	movwf	___flmul@temp
  2640  015F                     l1662:
  2641  015F  083E               	movf	___flmul@temp,w
  2642  0160  00AE               	movwf	??___flmul
  2643  0161  083F               	movf	___flmul@temp+1,w
  2644  0162  00AF               	movwf	??___flmul+1
  2645  0163  01B0               	clrf	??___flmul+2
  2646  0164  01B1               	clrf	??___flmul+3
  2647  0165  082E               	movf	??___flmul,w
  2648  0166  07B4               	addwf	___flmul@grs,f
  2649  0167  082F               	movf	??___flmul+1,w
  2650  0168  1103               	clrz
  2651  0169  1803               	skipnc
  2652  016A  3E01               	addlw	1
  2653  016B  1903               	skipnz
  2654  016C  296E               	goto	u1481
  2655  016D  07B5               	addwf	___flmul@grs+1,f
  2656  016E                     u1481:
  2657  016E  0830               	movf	??___flmul+2,w
  2658  016F  1103               	clrz
  2659  0170  1803               	skipnc
  2660  0171  3E01               	addlw	1
  2661  0172  1903               	skipnz
  2662  0173  2975               	goto	u1482
  2663  0174  07B6               	addwf	___flmul@grs+2,f
  2664  0175                     u1482:
  2665  0175  0831               	movf	??___flmul+3,w
  2666  0176  1103               	clrz
  2667  0177  1803               	skipnc
  2668  0178  3E01               	addlw	1
  2669  0179  1903               	skipnz
  2670  017A  297C               	goto	u1483
  2671  017B  07B7               	addwf	___flmul@grs+3,f
  2672  017C                     u1483:
  2673  017C                     l1664:
  2674  017C  0826               	movf	___flmul@b,w
  2675  017D  00AE               	movwf	??___flmul
  2676  017E  082E               	movf	??___flmul,w
  2677  017F  00F2               	movwf	__Umul8_16@multiplicand
  2678  0180  082B               	movf	___flmul@a+1,w
  2679  0181  120A  158A  274A  120A  118A  	fcall	__Umul8_16
  2680  0186  0873               	movf	?__Umul8_16+1,w
  2681  0187  1283               	bcf	3,5	;RP0=0, select bank0
  2682  0188  1303               	bcf	3,6	;RP1=0, select bank0
  2683  0189  00BF               	movwf	___flmul@temp+1
  2684  018A  0872               	movf	?__Umul8_16,w
  2685  018B  00BE               	movwf	___flmul@temp
  2686  018C                     l1666:
  2687  018C  083E               	movf	___flmul@temp,w
  2688  018D  00AE               	movwf	??___flmul
  2689  018E  083F               	movf	___flmul@temp+1,w
  2690  018F  00AF               	movwf	??___flmul+1
  2691  0190  01B0               	clrf	??___flmul+2
  2692  0191  01B1               	clrf	??___flmul+3
  2693  0192  082E               	movf	??___flmul,w
  2694  0193  07B4               	addwf	___flmul@grs,f
  2695  0194  082F               	movf	??___flmul+1,w
  2696  0195  1103               	clrz
  2697  0196  1803               	skipnc
  2698  0197  3E01               	addlw	1
  2699  0198  1903               	skipnz
  2700  0199  299B               	goto	u1491
  2701  019A  07B5               	addwf	___flmul@grs+1,f
  2702  019B                     u1491:
  2703  019B  0830               	movf	??___flmul+2,w
  2704  019C  1103               	clrz
  2705  019D  1803               	skipnc
  2706  019E  3E01               	addlw	1
  2707  019F  1903               	skipnz
  2708  01A0  29A2               	goto	u1492
  2709  01A1  07B6               	addwf	___flmul@grs+2,f
  2710  01A2                     u1492:
  2711  01A2  0831               	movf	??___flmul+3,w
  2712  01A3  1103               	clrz
  2713  01A4  1803               	skipnc
  2714  01A5  3E01               	addlw	1
  2715  01A6  1903               	skipnz
  2716  01A7  29A9               	goto	u1493
  2717  01A8  07B7               	addwf	___flmul@grs+3,f
  2718  01A9                     u1493:
  2719  01A9                     l1668:
  2720  01A9  3008               	movlw	8
  2721  01AA  00AE               	movwf	??___flmul
  2722  01AB                     u1505:
  2723  01AB  1003               	clrc
  2724  01AC  0DB4               	rlf	___flmul@grs,f
  2725  01AD  0DB5               	rlf	___flmul@grs+1,f
  2726  01AE  0DB6               	rlf	___flmul@grs+2,f
  2727  01AF  0DB7               	rlf	___flmul@grs+3,f
  2728  01B0  0BAE               	decfsz	??___flmul,f
  2729  01B1  29AB               	goto	u1505
  2730  01B2  0826               	movf	___flmul@b,w
  2731  01B3  00AE               	movwf	??___flmul
  2732  01B4  082E               	movf	??___flmul,w
  2733  01B5  00F2               	movwf	__Umul8_16@multiplicand
  2734  01B6  082A               	movf	___flmul@a,w
  2735  01B7  120A  158A  274A  120A  118A  	fcall	__Umul8_16
  2736  01BC  0873               	movf	?__Umul8_16+1,w
  2737  01BD  1283               	bcf	3,5	;RP0=0, select bank0
  2738  01BE  1303               	bcf	3,6	;RP1=0, select bank0
  2739  01BF  00BF               	movwf	___flmul@temp+1
  2740  01C0  0872               	movf	?__Umul8_16,w
  2741  01C1  00BE               	movwf	___flmul@temp
  2742  01C2                     l1670:
  2743  01C2  083E               	movf	___flmul@temp,w
  2744  01C3  00AE               	movwf	??___flmul
  2745  01C4  083F               	movf	___flmul@temp+1,w
  2746  01C5  00AF               	movwf	??___flmul+1
  2747  01C6  01B0               	clrf	??___flmul+2
  2748  01C7  01B1               	clrf	??___flmul+3
  2749  01C8  082E               	movf	??___flmul,w
  2750  01C9  07B4               	addwf	___flmul@grs,f
  2751  01CA  082F               	movf	??___flmul+1,w
  2752  01CB  1103               	clrz
  2753  01CC  1803               	skipnc
  2754  01CD  3E01               	addlw	1
  2755  01CE  1903               	skipnz
  2756  01CF  29D1               	goto	u1511
  2757  01D0  07B5               	addwf	___flmul@grs+1,f
  2758  01D1                     u1511:
  2759  01D1  0830               	movf	??___flmul+2,w
  2760  01D2  1103               	clrz
  2761  01D3  1803               	skipnc
  2762  01D4  3E01               	addlw	1
  2763  01D5  1903               	skipnz
  2764  01D6  29D8               	goto	u1512
  2765  01D7  07B6               	addwf	___flmul@grs+2,f
  2766  01D8                     u1512:
  2767  01D8  0831               	movf	??___flmul+3,w
  2768  01D9  1103               	clrz
  2769  01DA  1803               	skipnc
  2770  01DB  3E01               	addlw	1
  2771  01DC  1903               	skipnz
  2772  01DD  29DF               	goto	u1513
  2773  01DE  07B7               	addwf	___flmul@grs+3,f
  2774  01DF                     u1513:
  2775  01DF                     l1672:
  2776  01DF  0827               	movf	___flmul@b+1,w
  2777  01E0  00AE               	movwf	??___flmul
  2778  01E1  082E               	movf	??___flmul,w
  2779  01E2  00F2               	movwf	__Umul8_16@multiplicand
  2780  01E3  082C               	movf	___flmul@a+2,w
  2781  01E4  120A  158A  274A  120A  118A  	fcall	__Umul8_16
  2782  01E9  0873               	movf	?__Umul8_16+1,w
  2783  01EA  1283               	bcf	3,5	;RP0=0, select bank0
  2784  01EB  1303               	bcf	3,6	;RP1=0, select bank0
  2785  01EC  00BF               	movwf	___flmul@temp+1
  2786  01ED  0872               	movf	?__Umul8_16,w
  2787  01EE  00BE               	movwf	___flmul@temp
  2788  01EF  083E               	movf	___flmul@temp,w
  2789  01F0  00AE               	movwf	??___flmul
  2790  01F1  083F               	movf	___flmul@temp+1,w
  2791  01F2  00AF               	movwf	??___flmul+1
  2792  01F3  01B0               	clrf	??___flmul+2
  2793  01F4  01B1               	clrf	??___flmul+3
  2794  01F5  082E               	movf	??___flmul,w
  2795  01F6  07BA               	addwf	___flmul@prod,f
  2796  01F7  082F               	movf	??___flmul+1,w
  2797  01F8  1103               	clrz
  2798  01F9  1803               	skipnc
  2799  01FA  3E01               	addlw	1
  2800  01FB  1903               	skipnz
  2801  01FC  29FE               	goto	u1521
  2802  01FD  07BB               	addwf	___flmul@prod+1,f
  2803  01FE                     u1521:
  2804  01FE  0830               	movf	??___flmul+2,w
  2805  01FF  1103               	clrz
  2806  0200  1803               	skipnc
  2807  0201  3E01               	addlw	1
  2808  0202  1903               	skipnz
  2809  0203  2A05               	goto	u1522
  2810  0204  07BC               	addwf	___flmul@prod+2,f
  2811  0205                     u1522:
  2812  0205  0831               	movf	??___flmul+3,w
  2813  0206  1103               	clrz
  2814  0207  1803               	skipnc
  2815  0208  3E01               	addlw	1
  2816  0209  1903               	skipnz
  2817  020A  2A0C               	goto	u1523
  2818  020B  07BD               	addwf	___flmul@prod+3,f
  2819  020C                     u1523:
  2820  020C                     l1674:
  2821  020C  0828               	movf	___flmul@b+2,w
  2822  020D  00AE               	movwf	??___flmul
  2823  020E  082E               	movf	??___flmul,w
  2824  020F  00F2               	movwf	__Umul8_16@multiplicand
  2825  0210  082B               	movf	___flmul@a+1,w
  2826  0211  120A  158A  274A  120A  118A  	fcall	__Umul8_16
  2827  0216  0873               	movf	?__Umul8_16+1,w
  2828  0217  1283               	bcf	3,5	;RP0=0, select bank0
  2829  0218  1303               	bcf	3,6	;RP1=0, select bank0
  2830  0219  00BF               	movwf	___flmul@temp+1
  2831  021A  0872               	movf	?__Umul8_16,w
  2832  021B  00BE               	movwf	___flmul@temp
  2833  021C                     l1676:
  2834  021C  083E               	movf	___flmul@temp,w
  2835  021D  00AE               	movwf	??___flmul
  2836  021E  083F               	movf	___flmul@temp+1,w
  2837  021F  00AF               	movwf	??___flmul+1
  2838  0220  01B0               	clrf	??___flmul+2
  2839  0221  01B1               	clrf	??___flmul+3
  2840  0222  082E               	movf	??___flmul,w
  2841  0223  07BA               	addwf	___flmul@prod,f
  2842  0224  082F               	movf	??___flmul+1,w
  2843  0225  1103               	clrz
  2844  0226  1803               	skipnc
  2845  0227  3E01               	addlw	1
  2846  0228  1903               	skipnz
  2847  0229  2A2B               	goto	u1531
  2848  022A  07BB               	addwf	___flmul@prod+1,f
  2849  022B                     u1531:
  2850  022B  0830               	movf	??___flmul+2,w
  2851  022C  1103               	clrz
  2852  022D  1803               	skipnc
  2853  022E  3E01               	addlw	1
  2854  022F  1903               	skipnz
  2855  0230  2A32               	goto	u1532
  2856  0231  07BC               	addwf	___flmul@prod+2,f
  2857  0232                     u1532:
  2858  0232  0831               	movf	??___flmul+3,w
  2859  0233  1103               	clrz
  2860  0234  1803               	skipnc
  2861  0235  3E01               	addlw	1
  2862  0236  1903               	skipnz
  2863  0237  2A39               	goto	u1533
  2864  0238  07BD               	addwf	___flmul@prod+3,f
  2865  0239                     u1533:
  2866  0239  0828               	movf	___flmul@b+2,w
  2867  023A  00AE               	movwf	??___flmul
  2868  023B  082E               	movf	??___flmul,w
  2869  023C  00F2               	movwf	__Umul8_16@multiplicand
  2870  023D  082C               	movf	___flmul@a+2,w
  2871  023E  120A  158A  274A  120A  118A  	fcall	__Umul8_16
  2872  0243  0873               	movf	?__Umul8_16+1,w
  2873  0244  1283               	bcf	3,5	;RP0=0, select bank0
  2874  0245  1303               	bcf	3,6	;RP1=0, select bank0
  2875  0246  00BF               	movwf	___flmul@temp+1
  2876  0247  0872               	movf	?__Umul8_16,w
  2877  0248  00BE               	movwf	___flmul@temp
  2878  0249                     l1678:
  2879  0249  083E               	movf	___flmul@temp,w
  2880  024A  00AE               	movwf	??___flmul
  2881  024B  083F               	movf	___flmul@temp+1,w
  2882  024C  00AF               	movwf	??___flmul+1
  2883  024D  01B0               	clrf	??___flmul+2
  2884  024E  01B1               	clrf	??___flmul+3
  2885  024F  3008               	movlw	8
  2886  0250                     u1545:
  2887  0250  1003               	clrc
  2888  0251  0DAE               	rlf	??___flmul,f
  2889  0252  0DAF               	rlf	??___flmul+1,f
  2890  0253  0DB0               	rlf	??___flmul+2,f
  2891  0254  0DB1               	rlf	??___flmul+3,f
  2892  0255                     u1540:
  2893  0255  3EFF               	addlw	-1
  2894  0256  1D03               	skipz
  2895  0257  2A50               	goto	u1545
  2896  0258  082E               	movf	??___flmul,w
  2897  0259  07BA               	addwf	___flmul@prod,f
  2898  025A  082F               	movf	??___flmul+1,w
  2899  025B  1103               	clrz
  2900  025C  1803               	skipnc
  2901  025D  3E01               	addlw	1
  2902  025E  1903               	skipnz
  2903  025F  2A61               	goto	u1551
  2904  0260  07BB               	addwf	___flmul@prod+1,f
  2905  0261                     u1551:
  2906  0261  0830               	movf	??___flmul+2,w
  2907  0262  1103               	clrz
  2908  0263  1803               	skipnc
  2909  0264  3E01               	addlw	1
  2910  0265  1903               	skipnz
  2911  0266  2A68               	goto	u1552
  2912  0267  07BC               	addwf	___flmul@prod+2,f
  2913  0268                     u1552:
  2914  0268  0831               	movf	??___flmul+3,w
  2915  0269  1103               	clrz
  2916  026A  1803               	skipnc
  2917  026B  3E01               	addlw	1
  2918  026C  1903               	skipnz
  2919  026D  2A6F               	goto	u1553
  2920  026E  07BD               	addwf	___flmul@prod+3,f
  2921  026F                     u1553:
  2922  026F                     l1680:
  2923  026F  0834               	movf	___flmul@grs,w
  2924  0270  00AE               	movwf	??___flmul
  2925  0271  0835               	movf	___flmul@grs+1,w
  2926  0272  00AF               	movwf	??___flmul+1
  2927  0273  0836               	movf	___flmul@grs+2,w
  2928  0274  00B0               	movwf	??___flmul+2
  2929  0275  0837               	movf	___flmul@grs+3,w
  2930  0276  00B1               	movwf	??___flmul+3
  2931  0277  3018               	movlw	24
  2932  0278                     u1565:
  2933  0278  1003               	clrc
  2934  0279  0CB1               	rrf	??___flmul+3,f
  2935  027A  0CB0               	rrf	??___flmul+2,f
  2936  027B  0CAF               	rrf	??___flmul+1,f
  2937  027C  0CAE               	rrf	??___flmul,f
  2938  027D                     u1560:
  2939  027D  3EFF               	addlw	-1
  2940  027E  1D03               	skipz
  2941  027F  2A78               	goto	u1565
  2942  0280  082E               	movf	??___flmul,w
  2943  0281  07BA               	addwf	___flmul@prod,f
  2944  0282  082F               	movf	??___flmul+1,w
  2945  0283  1103               	clrz
  2946  0284  1803               	skipnc
  2947  0285  3E01               	addlw	1
  2948  0286  1903               	skipnz
  2949  0287  2A89               	goto	u1571
  2950  0288  07BB               	addwf	___flmul@prod+1,f
  2951  0289                     u1571:
  2952  0289  0830               	movf	??___flmul+2,w
  2953  028A  1103               	clrz
  2954  028B  1803               	skipnc
  2955  028C  3E01               	addlw	1
  2956  028D  1903               	skipnz
  2957  028E  2A90               	goto	u1572
  2958  028F  07BC               	addwf	___flmul@prod+2,f
  2959  0290                     u1572:
  2960  0290  0831               	movf	??___flmul+3,w
  2961  0291  1103               	clrz
  2962  0292  1803               	skipnc
  2963  0293  3E01               	addlw	1
  2964  0294  1903               	skipnz
  2965  0295  2A97               	goto	u1573
  2966  0296  07BD               	addwf	___flmul@prod+3,f
  2967  0297                     u1573:
  2968  0297                     l1682:
  2969  0297  3008               	movlw	8
  2970  0298  00AE               	movwf	??___flmul
  2971  0299                     u1585:
  2972  0299  1003               	clrc
  2973  029A  0DB4               	rlf	___flmul@grs,f
  2974  029B  0DB5               	rlf	___flmul@grs+1,f
  2975  029C  0DB6               	rlf	___flmul@grs+2,f
  2976  029D  0DB7               	rlf	___flmul@grs+3,f
  2977  029E  0BAE               	decfsz	??___flmul,f
  2978  029F  2A99               	goto	u1585
  2979  02A0                     l1684:
  2980  02A0  0839               	movf	___flmul@bexp,w
  2981  02A1  0738               	addwf	___flmul@aexp,w
  2982  02A2  00AE               	movwf	??___flmul
  2983  02A3  01AF               	clrf	??___flmul+1
  2984  02A4  0DAF               	rlf	??___flmul+1,f
  2985  02A5  082E               	movf	??___flmul,w
  2986  02A6  3E82               	addlw	130
  2987  02A7  00BE               	movwf	___flmul@temp
  2988  02A8  082F               	movf	??___flmul+1,w
  2989  02A9  1803               	skipnc
  2990  02AA  3E01               	addlw	1
  2991  02AB  3EFF               	addlw	255
  2992  02AC  00BF               	movwf	___flmul@temp+1
  2993  02AD  2ACB               	goto	l1696
  2994  02AE                     l1686:
  2995  02AE  3001               	movlw	1
  2996  02AF  00AE               	movwf	??___flmul
  2997  02B0                     u1595:
  2998  02B0  1003               	clrc
  2999  02B1  0DBA               	rlf	___flmul@prod,f
  3000  02B2  0DBB               	rlf	___flmul@prod+1,f
  3001  02B3  0DBC               	rlf	___flmul@prod+2,f
  3002  02B4  0DBD               	rlf	___flmul@prod+3,f
  3003  02B5  0BAE               	decfsz	??___flmul,f
  3004  02B6  2AB0               	goto	u1595
  3005  02B7                     l1688:
  3006  02B7  1FB7               	btfss	___flmul@grs+3,7
  3007  02B8  2ABA               	goto	u1601
  3008  02B9  2ABB               	goto	u1600
  3009  02BA                     u1601:
  3010  02BA  2ABC               	goto	l1692
  3011  02BB                     u1600:
  3012  02BB                     l1690:
  3013  02BB  143A               	bsf	___flmul@prod,0
  3014  02BC                     l1692:
  3015  02BC  3001               	movlw	1
  3016  02BD  00AE               	movwf	??___flmul
  3017  02BE                     u1615:
  3018  02BE  1003               	clrc
  3019  02BF  0DB4               	rlf	___flmul@grs,f
  3020  02C0  0DB5               	rlf	___flmul@grs+1,f
  3021  02C1  0DB6               	rlf	___flmul@grs+2,f
  3022  02C2  0DB7               	rlf	___flmul@grs+3,f
  3023  02C3  0BAE               	decfsz	??___flmul,f
  3024  02C4  2ABE               	goto	u1615
  3025  02C5                     l1694:
  3026  02C5  30FF               	movlw	255
  3027  02C6  07BE               	addwf	___flmul@temp,f
  3028  02C7  1803               	skipnc
  3029  02C8  0ABF               	incf	___flmul@temp+1,f
  3030  02C9  30FF               	movlw	255
  3031  02CA  07BF               	addwf	___flmul@temp+1,f
  3032  02CB                     l1696:
  3033  02CB  1FBC               	btfss	___flmul@prod+2,7
  3034  02CC  2ACE               	goto	u1621
  3035  02CD  2ACF               	goto	u1620
  3036  02CE                     u1621:
  3037  02CE  2AAE               	goto	l1686
  3038  02CF                     u1620:
  3039  02CF                     l1698:
  3040  02CF  01B8               	clrf	___flmul@aexp
  3041  02D0                     l1700:
  3042  02D0  1FB7               	btfss	___flmul@grs+3,7
  3043  02D1  2AD3               	goto	u1631
  3044  02D2  2AD4               	goto	u1630
  3045  02D3                     u1631:
  3046  02D3  2AF0               	goto	l1708
  3047  02D4                     u1630:
  3048  02D4                     l1702:
  3049  02D4  30FF               	movlw	255
  3050  02D5  0534               	andwf	___flmul@grs,w
  3051  02D6  00AE               	movwf	??___flmul
  3052  02D7  30FF               	movlw	255
  3053  02D8  0535               	andwf	___flmul@grs+1,w
  3054  02D9  00AF               	movwf	??___flmul+1
  3055  02DA  30FF               	movlw	255
  3056  02DB  0536               	andwf	___flmul@grs+2,w
  3057  02DC  00B0               	movwf	??___flmul+2
  3058  02DD  307F               	movlw	127
  3059  02DE  0537               	andwf	___flmul@grs+3,w
  3060  02DF  00B1               	movwf	??___flmul+3
  3061  02E0  0831               	movf	??___flmul+3,w
  3062  02E1  0430               	iorwf	??___flmul+2,w
  3063  02E2  042F               	iorwf	??___flmul+1,w
  3064  02E3  042E               	iorwf	??___flmul,w
  3065  02E4  1903               	skipnz
  3066  02E5  2AE7               	goto	u1641
  3067  02E6  2AE8               	goto	u1640
  3068  02E7                     u1641:
  3069  02E7  2AEB               	goto	l677
  3070  02E8                     u1640:
  3071  02E8                     l1704:
  3072  02E8  01B8               	clrf	___flmul@aexp
  3073  02E9  0AB8               	incf	___flmul@aexp,f
  3074  02EA  2AF0               	goto	l1708
  3075  02EB                     l677:
  3076  02EB  1C3A               	btfss	___flmul@prod,0
  3077  02EC  2AEE               	goto	u1651
  3078  02ED  2AEF               	goto	u1650
  3079  02EE                     u1651:
  3080  02EE  2AF0               	goto	l1708
  3081  02EF                     u1650:
  3082  02EF  2AE8               	goto	l1704
  3083  02F0                     l1708:
  3084  02F0  0838               	movf	___flmul@aexp,w
  3085  02F1  1903               	btfsc	3,2
  3086  02F2  2AF4               	goto	u1661
  3087  02F3  2AF5               	goto	u1660
  3088  02F4                     u1661:
  3089  02F4  2B26               	goto	l1718
  3090  02F5                     u1660:
  3091  02F5                     l1710:
  3092  02F5  3001               	movlw	1
  3093  02F6  07BA               	addwf	___flmul@prod,f
  3094  02F7  3000               	movlw	0
  3095  02F8  1803               	skipnc
  3096  02F9  3001               	movlw	1
  3097  02FA  07BB               	addwf	___flmul@prod+1,f
  3098  02FB  3000               	movlw	0
  3099  02FC  1803               	skipnc
  3100  02FD  3001               	movlw	1
  3101  02FE  07BC               	addwf	___flmul@prod+2,f
  3102  02FF  3000               	movlw	0
  3103  0300  1803               	skipnc
  3104  0301  3001               	movlw	1
  3105  0302  07BD               	addwf	___flmul@prod+3,f
  3106  0303                     l1712:
  3107  0303  1C3D               	btfss	___flmul@prod+3,0
  3108  0304  2B06               	goto	u1671
  3109  0305  2B07               	goto	u1670
  3110  0306                     u1671:
  3111  0306  2B26               	goto	l1718
  3112  0307                     u1670:
  3113  0307                     l1714:
  3114  0307  083A               	movf	___flmul@prod,w
  3115  0308  00AE               	movwf	??___flmul
  3116  0309  083B               	movf	___flmul@prod+1,w
  3117  030A  00AF               	movwf	??___flmul+1
  3118  030B  083C               	movf	___flmul@prod+2,w
  3119  030C  00B0               	movwf	??___flmul+2
  3120  030D  083D               	movf	___flmul@prod+3,w
  3121  030E  00B1               	movwf	??___flmul+3
  3122  030F  3001               	movlw	1
  3123  0310  00B2               	movwf	??___flmul+4
  3124  0311                     u1685:
  3125  0311  0D31               	rlf	??___flmul+3,w
  3126  0312  0CB1               	rrf	??___flmul+3,f
  3127  0313  0CB0               	rrf	??___flmul+2,f
  3128  0314  0CAF               	rrf	??___flmul+1,f
  3129  0315  0CAE               	rrf	??___flmul,f
  3130  0316                     u1680:
  3131  0316  0BB2               	decfsz	??___flmul+4,f
  3132  0317  2B11               	goto	u1685
  3133  0318  0831               	movf	??___flmul+3,w
  3134  0319  00BD               	movwf	___flmul@prod+3
  3135  031A  0830               	movf	??___flmul+2,w
  3136  031B  00BC               	movwf	___flmul@prod+2
  3137  031C  082F               	movf	??___flmul+1,w
  3138  031D  00BB               	movwf	___flmul@prod+1
  3139  031E  082E               	movf	??___flmul,w
  3140  031F  00BA               	movwf	___flmul@prod
  3141  0320                     l1716:
  3142  0320  3001               	movlw	1
  3143  0321  07BE               	addwf	___flmul@temp,f
  3144  0322  1803               	skipnc
  3145  0323  0ABF               	incf	___flmul@temp+1,f
  3146  0324  3000               	movlw	0
  3147  0325  07BF               	addwf	___flmul@temp+1,f
  3148  0326                     l1718:
  3149  0326  083F               	movf	___flmul@temp+1,w
  3150  0327  3A80               	xorlw	128
  3151  0328  00FF               	movwf	btemp+1
  3152  0329  3080               	movlw	128
  3153  032A  027F               	subwf	btemp+1,w
  3154  032B  1D03               	skipz
  3155  032C  2B2F               	goto	u1695
  3156  032D  30FF               	movlw	255
  3157  032E  023E               	subwf	___flmul@temp,w
  3158  032F                     u1695:
  3159  032F  1C03               	skipc
  3160  0330  2B32               	goto	u1691
  3161  0331  2B33               	goto	u1690
  3162  0332                     u1691:
  3163  0332  2B3E               	goto	l1722
  3164  0333                     u1690:
  3165  0333                     l1720:
  3166  0333  307F               	movlw	127
  3167  0334  1283               	bcf	3,5	;RP0=0, select bank0
  3168  0335  1303               	bcf	3,6	;RP1=0, select bank0
  3169  0336  00BD               	movwf	___flmul@prod+3
  3170  0337  3080               	movlw	128
  3171  0338  00BC               	movwf	___flmul@prod+2
  3172  0339  3000               	movlw	0
  3173  033A  00BB               	movwf	___flmul@prod+1
  3174  033B  3000               	movlw	0
  3175  033C  00BA               	movwf	___flmul@prod
  3176  033D  2B73               	goto	l683
  3177  033E                     l1722:
  3178  033E  1283               	bcf	3,5	;RP0=0, select bank0
  3179  033F  1303               	bcf	3,6	;RP1=0, select bank0
  3180  0340  083F               	movf	___flmul@temp+1,w
  3181  0341  3A80               	xorlw	128
  3182  0342  00FF               	movwf	btemp+1
  3183  0343  3080               	movlw	128
  3184  0344  027F               	subwf	btemp+1,w
  3185  0345  1D03               	skipz
  3186  0346  2B49               	goto	u1705
  3187  0347  3001               	movlw	1
  3188  0348  023E               	subwf	___flmul@temp,w
  3189  0349                     u1705:
  3190  0349  1803               	skipnc
  3191  034A  2B4C               	goto	u1701
  3192  034B  2B4D               	goto	u1700
  3193  034C                     u1701:
  3194  034C  2B59               	goto	l1728
  3195  034D                     u1700:
  3196  034D                     l1724:
  3197  034D  3000               	movlw	0
  3198  034E  1283               	bcf	3,5	;RP0=0, select bank0
  3199  034F  1303               	bcf	3,6	;RP1=0, select bank0
  3200  0350  00BD               	movwf	___flmul@prod+3
  3201  0351  3000               	movlw	0
  3202  0352  00BC               	movwf	___flmul@prod+2
  3203  0353  3000               	movlw	0
  3204  0354  00BB               	movwf	___flmul@prod+1
  3205  0355  3000               	movlw	0
  3206  0356  00BA               	movwf	___flmul@prod
  3207  0357                     l1726:
  3208  0357  01B3               	clrf	___flmul@sign
  3209  0358  2B73               	goto	l683
  3210  0359                     l1728:
  3211  0359  1283               	bcf	3,5	;RP0=0, select bank0
  3212  035A  1303               	bcf	3,6	;RP1=0, select bank0
  3213  035B  083E               	movf	___flmul@temp,w
  3214  035C  00AE               	movwf	??___flmul
  3215  035D  082E               	movf	??___flmul,w
  3216  035E  00B9               	movwf	___flmul@bexp
  3217  035F  30FF               	movlw	255
  3218  0360  05BA               	andwf	___flmul@prod,f
  3219  0361  30FF               	movlw	255
  3220  0362  05BB               	andwf	___flmul@prod+1,f
  3221  0363  307F               	movlw	127
  3222  0364  05BC               	andwf	___flmul@prod+2,f
  3223  0365  3000               	movlw	0
  3224  0366  05BD               	andwf	___flmul@prod+3,f
  3225  0367                     l1730:
  3226  0367  1C39               	btfss	___flmul@bexp,0
  3227  0368  2B6A               	goto	u1711
  3228  0369  2B6B               	goto	u1710
  3229  036A                     u1711:
  3230  036A  2B6C               	goto	l1734
  3231  036B                     u1710:
  3232  036B                     l1732:
  3233  036B  17BC               	bsf	___flmul@prod+2,7
  3234  036C                     l1734:
  3235  036C  0839               	movf	___flmul@bexp,w
  3236  036D  00AE               	movwf	??___flmul
  3237  036E  1003               	clrc
  3238  036F  0C2E               	rrf	??___flmul,w
  3239  0370  00AF               	movwf	??___flmul+1
  3240  0371  082F               	movf	??___flmul+1,w
  3241  0372  00BD               	movwf	___flmul@prod+3
  3242  0373                     l683:
  3243  0373  0833               	movf	___flmul@sign,w
  3244  0374  00AE               	movwf	??___flmul
  3245  0375  082E               	movf	??___flmul,w
  3246  0376  04BD               	iorwf	___flmul@prod+3,f
  3247  0377                     l1736:
  3248  0377  083D               	movf	___flmul@prod+3,w
  3249  0378  00A9               	movwf	?___flmul+3
  3250  0379  083C               	movf	___flmul@prod+2,w
  3251  037A  00A8               	movwf	?___flmul+2
  3252  037B  083B               	movf	___flmul@prod+1,w
  3253  037C  00A7               	movwf	?___flmul+1
  3254  037D  083A               	movf	___flmul@prod,w
  3255  037E  00A6               	movwf	?___flmul
  3256  037F                     l671:
  3257  037F  0008               	return
  3258  0380                     __end_of___flmul:
  3259                           
  3260                           	psect	text9
  3261  0F4A                     __ptext9:	
  3262 ;; *************** function __Umul8_16 *****************
  3263 ;; Defined at:
  3264 ;;		line 4 in file "C:\Program Files\Microchip\xc8\v2.31\pic\sources\c90\common\Umul8_16.c"
  3265 ;; Parameters:    Size  Location     Type
  3266 ;;  multiplier      1    wreg     unsigned char 
  3267 ;;  multiplicand    1    2[COMMON] unsigned char 
  3268 ;; Auto vars:     Size  Location     Type
  3269 ;;  multiplier      1   10[COMMON] unsigned char 
  3270 ;;  word_mpld       2    8[COMMON] unsigned int 
  3271 ;;  product         2    6[COMMON] unsigned int 
  3272 ;; Return value:  Size  Location     Type
  3273 ;;                  2    2[COMMON] unsigned int 
  3274 ;; Registers used:
  3275 ;;		wreg, status,2, status,0
  3276 ;; Tracked objects:
  3277 ;;		On entry : 0/0
  3278 ;;		On exit  : 0/0
  3279 ;;		Unchanged: 0/0
  3280 ;; Data sizes:     COMMON   BANK0   BANK1   BANK3   BANK2
  3281 ;;      Params:         2       0       0       0       0
  3282 ;;      Locals:         5       0       0       0       0
  3283 ;;      Temps:          2       0       0       0       0
  3284 ;;      Totals:         9       0       0       0       0
  3285 ;;Total ram usage:        9 bytes
  3286 ;; Hardware stack levels used:    1
  3287 ;; Hardware stack levels required when called:    1
  3288 ;; This function calls:
  3289 ;;		Nothing
  3290 ;; This function is called by:
  3291 ;;		___flmul
  3292 ;; This function uses a non-reentrant model
  3293 ;;
  3294                           
  3295                           
  3296                           ;psect for function __Umul8_16
  3297  0F4A                     __Umul8_16:
  3298                           
  3299                           ;incstack = 0
  3300                           ; Regs used in __Umul8_16: [wreg+status,2+status,0]
  3301                           ;__Umul8_16@multiplier stored from wreg
  3302  0F4A  00FA               	movwf	__Umul8_16@multiplier
  3303  0F4B                     l1440:
  3304  0F4B  01F6               	clrf	__Umul8_16@product
  3305  0F4C  01F7               	clrf	__Umul8_16@product+1
  3306  0F4D                     l1442:
  3307  0F4D  0872               	movf	__Umul8_16@multiplicand,w
  3308  0F4E  00F4               	movwf	??__Umul8_16
  3309  0F4F  01F5               	clrf	??__Umul8_16+1
  3310  0F50  0874               	movf	??__Umul8_16,w
  3311  0F51  00F8               	movwf	__Umul8_16@word_mpld
  3312  0F52  0875               	movf	??__Umul8_16+1,w
  3313  0F53  00F9               	movwf	__Umul8_16@word_mpld+1
  3314  0F54                     l1444:
  3315  0F54  1C7A               	btfss	__Umul8_16@multiplier,0
  3316  0F55  2F57               	goto	u1151
  3317  0F56  2F58               	goto	u1150
  3318  0F57                     u1151:
  3319  0F57  2F5E               	goto	l690
  3320  0F58                     u1150:
  3321  0F58                     l1446:
  3322  0F58  0878               	movf	__Umul8_16@word_mpld,w
  3323  0F59  07F6               	addwf	__Umul8_16@product,f
  3324  0F5A  1803               	skipnc
  3325  0F5B  0AF7               	incf	__Umul8_16@product+1,f
  3326  0F5C  0879               	movf	__Umul8_16@word_mpld+1,w
  3327  0F5D  07F7               	addwf	__Umul8_16@product+1,f
  3328  0F5E                     l690:
  3329  0F5E  3001               	movlw	1
  3330  0F5F                     u1165:
  3331  0F5F  1003               	clrc
  3332  0F60  0DF8               	rlf	__Umul8_16@word_mpld,f
  3333  0F61  0DF9               	rlf	__Umul8_16@word_mpld+1,f
  3334  0F62  3EFF               	addlw	-1
  3335  0F63  1D03               	skipz
  3336  0F64  2F5F               	goto	u1165
  3337  0F65  1003               	clrc
  3338  0F66  0CFA               	rrf	__Umul8_16@multiplier,f
  3339  0F67                     l1448:
  3340  0F67  087A               	movf	__Umul8_16@multiplier,w
  3341  0F68  1D03               	btfss	3,2
  3342  0F69  2F6B               	goto	u1171
  3343  0F6A  2F6C               	goto	u1170
  3344  0F6B                     u1171:
  3345  0F6B  2F54               	goto	l1444
  3346  0F6C                     u1170:
  3347  0F6C                     l1450:
  3348  0F6C  0877               	movf	__Umul8_16@product+1,w
  3349  0F6D  00F3               	movwf	?__Umul8_16+1
  3350  0F6E  0876               	movf	__Umul8_16@product,w
  3351  0F6F  00F2               	movwf	?__Umul8_16
  3352  0F70                     l692:
  3353  0F70  0008               	return
  3354  0F71                     __end_of__Umul8_16:
  3355                           
  3356                           	psect	text10
  3357  0630                     __ptext10:	
  3358 ;; *************** function _VAL *****************
  3359 ;; Defined at:
  3360 ;;		line 156 in file "master_main.c"
  3361 ;; Parameters:    Size  Location     Type
  3362 ;;  variable        2   10[COMMON] unsigned int 
  3363 ;; Auto vars:     Size  Location     Type
  3364 ;;  valor           2    2[BANK0 ] unsigned int 
  3365 ;; Return value:  Size  Location     Type
  3366 ;;                  1    wreg      void 
  3367 ;; Registers used:
  3368 ;;		wreg, status,2, status,0, pclath, cstack
  3369 ;; Tracked objects:
  3370 ;;		On entry : 0/0
  3371 ;;		On exit  : 0/0
  3372 ;;		Unchanged: 0/0
  3373 ;; Data sizes:     COMMON   BANK0   BANK1   BANK3   BANK2
  3374 ;;      Params:         2       0       0       0       0
  3375 ;;      Locals:         0       2       0       0       0
  3376 ;;      Temps:          0       2       0       0       0
  3377 ;;      Totals:         2       4       0       0       0
  3378 ;;Total ram usage:        6 bytes
  3379 ;; Hardware stack levels used:    1
  3380 ;; Hardware stack levels required when called:    2
  3381 ;; This function calls:
  3382 ;;		___lwdiv
  3383 ;;		___wmul
  3384 ;; This function is called by:
  3385 ;;		_main
  3386 ;; This function uses a non-reentrant model
  3387 ;;
  3388                           
  3389                           
  3390                           ;psect for function _VAL
  3391  0630                     _VAL:
  3392  0630                     l1548:	
  3393                           ;incstack = 0
  3394                           ; Regs used in _VAL: [wreg+status,2+status,0+pclath+cstack]
  3395                           
  3396  0630  087B               	movf	VAL@variable+1,w
  3397  0631  1283               	bcf	3,5	;RP0=0, select bank0
  3398  0632  1303               	bcf	3,6	;RP1=0, select bank0
  3399  0633  00A3               	movwf	VAL@valor+1
  3400  0634  087A               	movf	VAL@variable,w
  3401  0635  00A2               	movwf	VAL@valor
  3402  0636                     l1550:
  3403  0636  3064               	movlw	100
  3404  0637  00F2               	movwf	___lwdiv@divisor
  3405  0638  3000               	movlw	0
  3406  0639  00F3               	movwf	___lwdiv@divisor+1
  3407  063A  0823               	movf	VAL@valor+1,w
  3408  063B  00F5               	movwf	___lwdiv@dividend+1
  3409  063C  0822               	movf	VAL@valor,w
  3410  063D  00F4               	movwf	___lwdiv@dividend
  3411  063E  120A  118A  27AB  120A  118A  	fcall	___lwdiv
  3412  0643  0872               	movf	?___lwdiv,w
  3413  0644  1283               	bcf	3,5	;RP0=0, select bank0
  3414  0645  1303               	bcf	3,6	;RP1=0, select bank0
  3415  0646  00A0               	movwf	??_VAL
  3416  0647  0820               	movf	??_VAL,w
  3417  0648  00D7               	movwf	_POS1
  3418  0649                     l1552:
  3419  0649  0857               	movf	_POS1,w
  3420  064A  00A0               	movwf	??_VAL
  3421  064B  01A1               	clrf	??_VAL+1
  3422  064C  0820               	movf	??_VAL,w
  3423  064D  00F2               	movwf	___wmul@multiplier
  3424  064E  0821               	movf	??_VAL+1,w
  3425  064F  00F3               	movwf	___wmul@multiplier+1
  3426  0650  309C               	movlw	156
  3427  0651  00F4               	movwf	___wmul@multiplicand
  3428  0652  30FF               	movlw	255
  3429  0653  00F5               	movwf	___wmul@multiplicand+1
  3430  0654  120A  158A  2725  120A  118A  	fcall	___wmul
  3431  0659  1283               	bcf	3,5	;RP0=0, select bank0
  3432  065A  1303               	bcf	3,6	;RP1=0, select bank0
  3433  065B  0822               	movf	VAL@valor,w
  3434  065C  0772               	addwf	?___wmul,w
  3435  065D  00A2               	movwf	VAL@valor
  3436  065E  0823               	movf	VAL@valor+1,w
  3437  065F  1803               	skipnc
  3438  0660  0A23               	incf	VAL@valor+1,w
  3439  0661  0773               	addwf	?___wmul+1,w
  3440  0662  00A3               	movwf	VAL@valor+1
  3441  0663                     l1554:
  3442  0663  300A               	movlw	10
  3443  0664  00F2               	movwf	___lwdiv@divisor
  3444  0665  3000               	movlw	0
  3445  0666  00F3               	movwf	___lwdiv@divisor+1
  3446  0667  0823               	movf	VAL@valor+1,w
  3447  0668  00F5               	movwf	___lwdiv@dividend+1
  3448  0669  0822               	movf	VAL@valor,w
  3449  066A  00F4               	movwf	___lwdiv@dividend
  3450  066B  120A  118A  27AB  120A  118A  	fcall	___lwdiv
  3451  0670  0872               	movf	?___lwdiv,w
  3452  0671  1283               	bcf	3,5	;RP0=0, select bank0
  3453  0672  1303               	bcf	3,6	;RP1=0, select bank0
  3454  0673  00A0               	movwf	??_VAL
  3455  0674  0820               	movf	??_VAL,w
  3456  0675  00D6               	movwf	_POS2
  3457  0676                     l1556:
  3458  0676  0856               	movf	_POS2,w
  3459  0677  00A0               	movwf	??_VAL
  3460  0678  01A1               	clrf	??_VAL+1
  3461  0679  0820               	movf	??_VAL,w
  3462  067A  00F2               	movwf	___wmul@multiplier
  3463  067B  0821               	movf	??_VAL+1,w
  3464  067C  00F3               	movwf	___wmul@multiplier+1
  3465  067D  30F6               	movlw	246
  3466  067E  00F4               	movwf	___wmul@multiplicand
  3467  067F  30FF               	movlw	255
  3468  0680  00F5               	movwf	___wmul@multiplicand+1
  3469  0681  120A  158A  2725  120A  118A  	fcall	___wmul
  3470  0686  1283               	bcf	3,5	;RP0=0, select bank0
  3471  0687  1303               	bcf	3,6	;RP1=0, select bank0
  3472  0688  0822               	movf	VAL@valor,w
  3473  0689  0772               	addwf	?___wmul,w
  3474  068A  00A2               	movwf	VAL@valor
  3475  068B  0823               	movf	VAL@valor+1,w
  3476  068C  1803               	skipnc
  3477  068D  0A23               	incf	VAL@valor+1,w
  3478  068E  0773               	addwf	?___wmul+1,w
  3479  068F  00A3               	movwf	VAL@valor+1
  3480  0690  0822               	movf	VAL@valor,w
  3481  0691  00A0               	movwf	??_VAL
  3482  0692  0820               	movf	??_VAL,w
  3483  0693  00D5               	movwf	_POS3
  3484  0694                     l1558:
  3485  0694  0857               	movf	_POS1,w
  3486  0695  3E30               	addlw	48
  3487  0696  00A0               	movwf	??_VAL
  3488  0697  0820               	movf	??_VAL,w
  3489  0698  00D7               	movwf	_POS1
  3490  0699                     l1560:
  3491  0699  0856               	movf	_POS2,w
  3492  069A  3E30               	addlw	48
  3493  069B  00A0               	movwf	??_VAL
  3494  069C  0820               	movf	??_VAL,w
  3495  069D  00D6               	movwf	_POS2
  3496  069E                     l1562:
  3497  069E  0855               	movf	_POS3,w
  3498  069F  3E30               	addlw	48
  3499  06A0  00A0               	movwf	??_VAL
  3500  06A1  0820               	movf	??_VAL,w
  3501  06A2  00D5               	movwf	_POS3
  3502  06A3                     l188:
  3503  06A3  0008               	return
  3504  06A4                     __end_of_VAL:
  3505                           
  3506                           	psect	text11
  3507  0F25                     __ptext11:	
  3508 ;; *************** function ___wmul *****************
  3509 ;; Defined at:
  3510 ;;		line 15 in file "C:\Program Files\Microchip\xc8\v2.31\pic\sources\c90\common\Umul16.c"
  3511 ;; Parameters:    Size  Location     Type
  3512 ;;  multiplier      2    2[COMMON] unsigned int 
  3513 ;;  multiplicand    2    4[COMMON] unsigned int 
  3514 ;; Auto vars:     Size  Location     Type
  3515 ;;  product         2    6[COMMON] unsigned int 
  3516 ;; Return value:  Size  Location     Type
  3517 ;;                  2    2[COMMON] unsigned int 
  3518 ;; Registers used:
  3519 ;;		wreg, status,2, status,0
  3520 ;; Tracked objects:
  3521 ;;		On entry : 0/0
  3522 ;;		On exit  : 0/0
  3523 ;;		Unchanged: 0/0
  3524 ;; Data sizes:     COMMON   BANK0   BANK1   BANK3   BANK2
  3525 ;;      Params:         4       0       0       0       0
  3526 ;;      Locals:         2       0       0       0       0
  3527 ;;      Temps:          0       0       0       0       0
  3528 ;;      Totals:         6       0       0       0       0
  3529 ;;Total ram usage:        6 bytes
  3530 ;; Hardware stack levels used:    1
  3531 ;; Hardware stack levels required when called:    1
  3532 ;; This function calls:
  3533 ;;		Nothing
  3534 ;; This function is called by:
  3535 ;;		_VAL
  3536 ;; This function uses a non-reentrant model
  3537 ;;
  3538                           
  3539                           
  3540                           ;psect for function ___wmul
  3541  0F25                     ___wmul:
  3542  0F25                     l1400:	
  3543                           ;incstack = 0
  3544                           ; Regs used in ___wmul: [wreg+status,2+status,0]
  3545                           
  3546  0F25  01F6               	clrf	___wmul@product
  3547  0F26  01F7               	clrf	___wmul@product+1
  3548  0F27                     l1402:
  3549  0F27  1C72               	btfss	___wmul@multiplier,0
  3550  0F28  2F2A               	goto	u1041
  3551  0F29  2F2B               	goto	u1040
  3552  0F2A                     u1041:
  3553  0F2A  2F31               	goto	l282
  3554  0F2B                     u1040:
  3555  0F2B                     l1404:
  3556  0F2B  0874               	movf	___wmul@multiplicand,w
  3557  0F2C  07F6               	addwf	___wmul@product,f
  3558  0F2D  1803               	skipnc
  3559  0F2E  0AF7               	incf	___wmul@product+1,f
  3560  0F2F  0875               	movf	___wmul@multiplicand+1,w
  3561  0F30  07F7               	addwf	___wmul@product+1,f
  3562  0F31                     l282:
  3563  0F31  3001               	movlw	1
  3564  0F32                     u1055:
  3565  0F32  1003               	clrc
  3566  0F33  0DF4               	rlf	___wmul@multiplicand,f
  3567  0F34  0DF5               	rlf	___wmul@multiplicand+1,f
  3568  0F35  3EFF               	addlw	-1
  3569  0F36  1D03               	skipz
  3570  0F37  2F32               	goto	u1055
  3571  0F38                     l1406:
  3572  0F38  3001               	movlw	1
  3573  0F39                     u1065:
  3574  0F39  1003               	clrc
  3575  0F3A  0CF3               	rrf	___wmul@multiplier+1,f
  3576  0F3B  0CF2               	rrf	___wmul@multiplier,f
  3577  0F3C  3EFF               	addlw	-1
  3578  0F3D  1D03               	skipz
  3579  0F3E  2F39               	goto	u1065
  3580  0F3F                     l1408:
  3581  0F3F  0872               	movf	___wmul@multiplier,w
  3582  0F40  0473               	iorwf	___wmul@multiplier+1,w
  3583  0F41  1D03               	btfss	3,2
  3584  0F42  2F44               	goto	u1071
  3585  0F43  2F45               	goto	u1070
  3586  0F44                     u1071:
  3587  0F44  2F27               	goto	l1402
  3588  0F45                     u1070:
  3589  0F45                     l1410:
  3590  0F45  0877               	movf	___wmul@product+1,w
  3591  0F46  00F3               	movwf	?___wmul+1
  3592  0F47  0876               	movf	___wmul@product,w
  3593  0F48  00F2               	movwf	?___wmul
  3594  0F49                     l284:
  3595  0F49  0008               	return
  3596  0F4A                     __end_of___wmul:
  3597                           
  3598                           	psect	text12
  3599  07AB                     __ptext12:	
  3600 ;; *************** function ___lwdiv *****************
  3601 ;; Defined at:
  3602 ;;		line 5 in file "C:\Program Files\Microchip\xc8\v2.31\pic\sources\c90\common\lwdiv.c"
  3603 ;; Parameters:    Size  Location     Type
  3604 ;;  divisor         2    2[COMMON] unsigned int 
  3605 ;;  dividend        2    4[COMMON] unsigned int 
  3606 ;; Auto vars:     Size  Location     Type
  3607 ;;  quotient        2    7[COMMON] unsigned int 
  3608 ;;  counter         1    9[COMMON] unsigned char 
  3609 ;; Return value:  Size  Location     Type
  3610 ;;                  2    2[COMMON] unsigned int 
  3611 ;; Registers used:
  3612 ;;		wreg, status,2, status,0
  3613 ;; Tracked objects:
  3614 ;;		On entry : 0/0
  3615 ;;		On exit  : 0/0
  3616 ;;		Unchanged: 0/0
  3617 ;; Data sizes:     COMMON   BANK0   BANK1   BANK3   BANK2
  3618 ;;      Params:         4       0       0       0       0
  3619 ;;      Locals:         3       0       0       0       0
  3620 ;;      Temps:          1       0       0       0       0
  3621 ;;      Totals:         8       0       0       0       0
  3622 ;;Total ram usage:        8 bytes
  3623 ;; Hardware stack levels used:    1
  3624 ;; Hardware stack levels required when called:    1
  3625 ;; This function calls:
  3626 ;;		Nothing
  3627 ;; This function is called by:
  3628 ;;		_VAL
  3629 ;; This function uses a non-reentrant model
  3630 ;;
  3631                           
  3632                           
  3633                           ;psect for function ___lwdiv
  3634  07AB                     ___lwdiv:
  3635  07AB                     l1414:	
  3636                           ;incstack = 0
  3637                           ; Regs used in ___lwdiv: [wreg+status,2+status,0]
  3638                           
  3639  07AB  01F7               	clrf	___lwdiv@quotient
  3640  07AC  01F8               	clrf	___lwdiv@quotient+1
  3641  07AD                     l1416:
  3642  07AD  0872               	movf	___lwdiv@divisor,w
  3643  07AE  0473               	iorwf	___lwdiv@divisor+1,w
  3644  07AF  1903               	btfsc	3,2
  3645  07B0  2FB2               	goto	u1081
  3646  07B1  2FB3               	goto	u1080
  3647  07B2                     u1081:
  3648  07B2  2FEA               	goto	l1436
  3649  07B3                     u1080:
  3650  07B3                     l1418:
  3651  07B3  01F9               	clrf	___lwdiv@counter
  3652  07B4  0AF9               	incf	___lwdiv@counter,f
  3653  07B5  2FC1               	goto	l1424
  3654  07B6                     l1420:
  3655  07B6  3001               	movlw	1
  3656  07B7                     u1095:
  3657  07B7  1003               	clrc
  3658  07B8  0DF2               	rlf	___lwdiv@divisor,f
  3659  07B9  0DF3               	rlf	___lwdiv@divisor+1,f
  3660  07BA  3EFF               	addlw	-1
  3661  07BB  1D03               	skipz
  3662  07BC  2FB7               	goto	u1095
  3663  07BD                     l1422:
  3664  07BD  3001               	movlw	1
  3665  07BE  00F6               	movwf	??___lwdiv
  3666  07BF  0876               	movf	??___lwdiv,w
  3667  07C0  07F9               	addwf	___lwdiv@counter,f
  3668  07C1                     l1424:
  3669  07C1  1FF3               	btfss	___lwdiv@divisor+1,7
  3670  07C2  2FC4               	goto	u1101
  3671  07C3  2FC5               	goto	u1100
  3672  07C4                     u1101:
  3673  07C4  2FB6               	goto	l1420
  3674  07C5                     u1100:
  3675  07C5                     l1426:
  3676  07C5  3001               	movlw	1
  3677  07C6                     u1115:
  3678  07C6  1003               	clrc
  3679  07C7  0DF7               	rlf	___lwdiv@quotient,f
  3680  07C8  0DF8               	rlf	___lwdiv@quotient+1,f
  3681  07C9  3EFF               	addlw	-1
  3682  07CA  1D03               	skipz
  3683  07CB  2FC6               	goto	u1115
  3684  07CC  0873               	movf	___lwdiv@divisor+1,w
  3685  07CD  0275               	subwf	___lwdiv@dividend+1,w
  3686  07CE  1D03               	skipz
  3687  07CF  2FD2               	goto	u1125
  3688  07D0  0872               	movf	___lwdiv@divisor,w
  3689  07D1  0274               	subwf	___lwdiv@dividend,w
  3690  07D2                     u1125:
  3691  07D2  1C03               	skipc
  3692  07D3  2FD5               	goto	u1121
  3693  07D4  2FD6               	goto	u1120
  3694  07D5                     u1121:
  3695  07D5  2FDD               	goto	l1432
  3696  07D6                     u1120:
  3697  07D6                     l1428:
  3698  07D6  0872               	movf	___lwdiv@divisor,w
  3699  07D7  02F4               	subwf	___lwdiv@dividend,f
  3700  07D8  0873               	movf	___lwdiv@divisor+1,w
  3701  07D9  1C03               	skipc
  3702  07DA  03F5               	decf	___lwdiv@dividend+1,f
  3703  07DB  02F5               	subwf	___lwdiv@dividend+1,f
  3704  07DC                     l1430:
  3705  07DC  1477               	bsf	___lwdiv@quotient,0
  3706  07DD                     l1432:
  3707  07DD  3001               	movlw	1
  3708  07DE                     u1135:
  3709  07DE  1003               	clrc
  3710  07DF  0CF3               	rrf	___lwdiv@divisor+1,f
  3711  07E0  0CF2               	rrf	___lwdiv@divisor,f
  3712  07E1  3EFF               	addlw	-1
  3713  07E2  1D03               	skipz
  3714  07E3  2FDE               	goto	u1135
  3715  07E4                     l1434:
  3716  07E4  3001               	movlw	1
  3717  07E5  02F9               	subwf	___lwdiv@counter,f
  3718  07E6  1D03               	btfss	3,2
  3719  07E7  2FE9               	goto	u1141
  3720  07E8  2FEA               	goto	u1140
  3721  07E9                     u1141:
  3722  07E9  2FC5               	goto	l1426
  3723  07EA                     u1140:
  3724  07EA                     l1436:
  3725  07EA  0878               	movf	___lwdiv@quotient+1,w
  3726  07EB  00F3               	movwf	?___lwdiv+1
  3727  07EC  0877               	movf	___lwdiv@quotient,w
  3728  07ED  00F2               	movwf	?___lwdiv
  3729  07EE                     l554:
  3730  07EE  0008               	return
  3731  07EF                     __end_of___lwdiv:
  3732                           
  3733                           	psect	text13
  3734  0F00                     __ptext13:	
  3735 ;; *************** function _Lcd_Write_String *****************
  3736 ;; Defined at:
  3737 ;;		line 77 in file "LCD.c"
  3738 ;; Parameters:    Size  Location     Type
  3739 ;;  a               1    wreg     PTR unsigned char 
  3740 ;;		 -> STR_4(1), STR_3(5), STR_2(3), STR_1(17), 
  3741 ;; Auto vars:     Size  Location     Type
  3742 ;;  a               1    9[COMMON] PTR unsigned char 
  3743 ;;		 -> STR_4(1), STR_3(5), STR_2(3), STR_1(17), 
  3744 ;;  i               2    7[COMMON] int 
  3745 ;; Return value:  Size  Location     Type
  3746 ;;                  1    wreg      void 
  3747 ;; Registers used:
  3748 ;;		wreg, fsr0l, fsr0h, status,2, status,0, pclath, cstack
  3749 ;; Tracked objects:
  3750 ;;		On entry : 0/0
  3751 ;;		On exit  : 0/0
  3752 ;;		Unchanged: 0/0
  3753 ;; Data sizes:     COMMON   BANK0   BANK1   BANK3   BANK2
  3754 ;;      Params:         0       0       0       0       0
  3755 ;;      Locals:         3       0       0       0       0
  3756 ;;      Temps:          0       0       0       0       0
  3757 ;;      Totals:         3       0       0       0       0
  3758 ;;Total ram usage:        3 bytes
  3759 ;; Hardware stack levels used:    1
  3760 ;; Hardware stack levels required when called:    3
  3761 ;; This function calls:
  3762 ;;		_Lcd_Write_Char
  3763 ;; This function is called by:
  3764 ;;		_main
  3765 ;; This function uses a non-reentrant model
  3766 ;;
  3767                           
  3768                           
  3769                           ;psect for function _Lcd_Write_String
  3770  0F00                     _Lcd_Write_String:
  3771                           
  3772                           ;incstack = 0
  3773                           ; Regs used in _Lcd_Write_String: [wreg-fsr0h+status,2+status,0+pclath+cstack]
  3774                           ;Lcd_Write_String@a stored from wreg
  3775  0F00  00F9               	movwf	Lcd_Write_String@a
  3776  0F01                     l1514:
  3777                           
  3778                           ;LCD.c: 78:     int i;;LCD.c: 79:     for (i = 0; a[i] != '\0'; i++)
  3779  0F01  01F7               	clrf	Lcd_Write_String@i
  3780  0F02  01F8               	clrf	Lcd_Write_String@i+1
  3781  0F03  2F17               	goto	l1520
  3782  0F04                     l1516:
  3783                           
  3784                           ;LCD.c: 80:         Lcd_Write_Char(a[i]);
  3785  0F04  0877               	movf	Lcd_Write_String@i,w
  3786  0F05  0779               	addwf	Lcd_Write_String@a,w
  3787  0F06  0084               	movwf	4
  3788  0F07  120A  158A  2000  120A  158A  	fcall	stringdir
  3789  0F0C  120A  158A  26E3  120A  158A  	fcall	_Lcd_Write_Char
  3790  0F11                     l1518:
  3791  0F11  3001               	movlw	1
  3792  0F12  07F7               	addwf	Lcd_Write_String@i,f
  3793  0F13  1803               	skipnc
  3794  0F14  0AF8               	incf	Lcd_Write_String@i+1,f
  3795  0F15  3000               	movlw	0
  3796  0F16  07F8               	addwf	Lcd_Write_String@i+1,f
  3797  0F17                     l1520:
  3798  0F17  0877               	movf	Lcd_Write_String@i,w
  3799  0F18  0779               	addwf	Lcd_Write_String@a,w
  3800  0F19  0084               	movwf	4
  3801  0F1A  120A  158A  2000  120A  158A  	fcall	stringdir
  3802  0F1F  3A00               	xorlw	0
  3803  0F20  1D03               	skipz
  3804  0F21  2F23               	goto	u1231
  3805  0F22  2F24               	goto	u1230
  3806  0F23                     u1231:
  3807  0F23  2F04               	goto	l1516
  3808  0F24                     u1230:
  3809  0F24                     l90:
  3810  0F24  0008               	return
  3811  0F25                     __end_of_Lcd_Write_String:
  3812                           
  3813                           	psect	text14
  3814  0EE3                     __ptext14:	
  3815 ;; *************** function _Lcd_Write_Char *****************
  3816 ;; Defined at:
  3817 ;;		line 65 in file "LCD.c"
  3818 ;; Parameters:    Size  Location     Type
  3819 ;;  a               1    wreg     unsigned char 
  3820 ;; Auto vars:     Size  Location     Type
  3821 ;;  a               1    4[COMMON] unsigned char 
  3822 ;;  y               1    6[COMMON] unsigned char 
  3823 ;;  temp            1    5[COMMON] unsigned char 
  3824 ;; Return value:  Size  Location     Type
  3825 ;;                  1    wreg      void 
  3826 ;; Registers used:
  3827 ;;		wreg, status,2, status,0, pclath, cstack
  3828 ;; Tracked objects:
  3829 ;;		On entry : 0/0
  3830 ;;		On exit  : 0/0
  3831 ;;		Unchanged: 0/0
  3832 ;; Data sizes:     COMMON   BANK0   BANK1   BANK3   BANK2
  3833 ;;      Params:         0       0       0       0       0
  3834 ;;      Locals:         3       0       0       0       0
  3835 ;;      Temps:          1       0       0       0       0
  3836 ;;      Totals:         4       0       0       0       0
  3837 ;;Total ram usage:        4 bytes
  3838 ;; Hardware stack levels used:    1
  3839 ;; Hardware stack levels required when called:    2
  3840 ;; This function calls:
  3841 ;;		_Lcd_Port
  3842 ;; This function is called by:
  3843 ;;		_Lcd_Write_String
  3844 ;;		_main
  3845 ;; This function uses a non-reentrant model
  3846 ;;
  3847                           
  3848                           
  3849                           ;psect for function _Lcd_Write_Char
  3850  0EE3                     _Lcd_Write_Char:
  3851                           
  3852                           ;incstack = 0
  3853                           ; Regs used in _Lcd_Write_Char: [wreg+status,2+status,0+pclath+cstack]
  3854                           ;Lcd_Write_Char@a stored from wreg
  3855  0EE3  00F4               	movwf	Lcd_Write_Char@a
  3856  0EE4                     l1388:
  3857                           
  3858                           ;LCD.c: 66:     char temp, y;;LCD.c: 67:     temp = a;
  3859  0EE4  0874               	movf	Lcd_Write_Char@a,w
  3860  0EE5  00F3               	movwf	??_Lcd_Write_Char
  3861  0EE6  0873               	movf	??_Lcd_Write_Char,w
  3862  0EE7  00F5               	movwf	Lcd_Write_Char@temp
  3863                           
  3864                           ;LCD.c: 68:     y = temp;
  3865  0EE8  0875               	movf	Lcd_Write_Char@temp,w
  3866  0EE9  00F3               	movwf	??_Lcd_Write_Char
  3867  0EEA  0873               	movf	??_Lcd_Write_Char,w
  3868  0EEB  00F6               	movwf	Lcd_Write_Char@y
  3869  0EEC                     l1390:
  3870                           
  3871                           ;LCD.c: 69:     RE0 = 1;
  3872  0EEC  1283               	bcf	3,5	;RP0=0, select bank0
  3873  0EED  1303               	bcf	3,6	;RP1=0, select bank0
  3874  0EEE  1409               	bsf	9,0	;volatile
  3875  0EEF                     l1392:
  3876                           
  3877                           ;LCD.c: 70:     Lcd_Port(y);
  3878  0EEF  0876               	movf	Lcd_Write_Char@y,w
  3879  0EF0  120A  158A  2670  120A  158A  	fcall	_Lcd_Port
  3880  0EF5                     l1394:
  3881                           
  3882                           ;LCD.c: 71:     RE1 = 1;
  3883  0EF5  1283               	bcf	3,5	;RP0=0, select bank0
  3884  0EF6  1303               	bcf	3,6	;RP1=0, select bank0
  3885  0EF7  1489               	bsf	9,1	;volatile
  3886  0EF8                     l1396:
  3887                           
  3888                           ;LCD.c: 72:     _delay((unsigned long)((40)*(4000000/4000000.0)));
  3889  0EF8  300D               	movlw	13
  3890  0EF9  00F3               	movwf	??_Lcd_Write_Char
  3891  0EFA                     u1917:
  3892  0EFA  0BF3               	decfsz	??_Lcd_Write_Char,f
  3893  0EFB  2EFA               	goto	u1917
  3894  0EFC                     l1398:
  3895                           
  3896                           ;LCD.c: 73:     RE1 = 0;
  3897  0EFC  1283               	bcf	3,5	;RP0=0, select bank0
  3898  0EFD  1303               	bcf	3,6	;RP1=0, select bank0
  3899  0EFE  1089               	bcf	9,1	;volatile
  3900  0EFF                     l84:
  3901  0EFF  0008               	return
  3902  0F00                     __end_of_Lcd_Write_Char:
  3903                           
  3904                           	psect	text15
  3905  070C                     __ptext15:	
  3906 ;; *************** function _Lcd_Set_Cursor *****************
  3907 ;; Defined at:
  3908 ;;		line 30 in file "LCD.c"
  3909 ;; Parameters:    Size  Location     Type
  3910 ;;  a               1    wreg     unsigned char 
  3911 ;;  b               1    6[COMMON] unsigned char 
  3912 ;; Auto vars:     Size  Location     Type
  3913 ;;  a               1    0[BANK0 ] unsigned char 
  3914 ;;  temp            1    3[BANK0 ] unsigned char 
  3915 ;;  y               1    2[BANK0 ] unsigned char 
  3916 ;;  z               1    1[BANK0 ] unsigned char 
  3917 ;; Return value:  Size  Location     Type
  3918 ;;                  1    wreg      void 
  3919 ;; Registers used:
  3920 ;;		wreg, status,2, status,0, pclath, cstack
  3921 ;; Tracked objects:
  3922 ;;		On entry : 0/0
  3923 ;;		On exit  : 0/0
  3924 ;;		Unchanged: 0/0
  3925 ;; Data sizes:     COMMON   BANK0   BANK1   BANK3   BANK2
  3926 ;;      Params:         1       0       0       0       0
  3927 ;;      Locals:         0       4       0       0       0
  3928 ;;      Temps:          2       0       0       0       0
  3929 ;;      Totals:         3       4       0       0       0
  3930 ;;Total ram usage:        7 bytes
  3931 ;; Hardware stack levels used:    1
  3932 ;; Hardware stack levels required when called:    3
  3933 ;; This function calls:
  3934 ;;		_Lcd_Cmd
  3935 ;; This function is called by:
  3936 ;;		_main
  3937 ;; This function uses a non-reentrant model
  3938 ;;
  3939                           
  3940                           
  3941                           ;psect for function _Lcd_Set_Cursor
  3942  070C                     _Lcd_Set_Cursor:
  3943                           
  3944                           ;incstack = 0
  3945                           ; Regs used in _Lcd_Set_Cursor: [wreg+status,2+status,0+pclath+cstack]
  3946                           ;Lcd_Set_Cursor@a stored from wreg
  3947  070C  1283               	bcf	3,5	;RP0=0, select bank0
  3948  070D  1303               	bcf	3,6	;RP1=0, select bank0
  3949  070E  00A0               	movwf	Lcd_Set_Cursor@a
  3950  070F                     l1484:
  3951                           
  3952                           ;LCD.c: 31:     char temp, z, y;;LCD.c: 32:     if (a == 1) {
  3953  070F  0320               	decf	Lcd_Set_Cursor@a,w
  3954  0710  1D03               	btfss	3,2
  3955  0711  2F13               	goto	u1191
  3956  0712  2F14               	goto	u1190
  3957  0713                     u1191:
  3958  0713  2F39               	goto	l1494
  3959  0714                     u1190:
  3960  0714                     l1486:
  3961                           
  3962                           ;LCD.c: 33:         temp = 0x80 + b - 1;
  3963  0714  0876               	movf	Lcd_Set_Cursor@b,w
  3964  0715  3E7F               	addlw	127
  3965  0716  00F7               	movwf	??_Lcd_Set_Cursor
  3966  0717  0877               	movf	??_Lcd_Set_Cursor,w
  3967  0718  00A3               	movwf	Lcd_Set_Cursor@temp
  3968                           
  3969                           ;LCD.c: 34:         z = temp >> 4;
  3970  0719  0823               	movf	Lcd_Set_Cursor@temp,w
  3971  071A  00F7               	movwf	??_Lcd_Set_Cursor
  3972  071B  3004               	movlw	4
  3973  071C                     u1205:
  3974  071C  1003               	clrc
  3975  071D  0CF7               	rrf	??_Lcd_Set_Cursor,f
  3976  071E  3EFF               	addlw	-1
  3977  071F  1D03               	skipz
  3978  0720  2F1C               	goto	u1205
  3979  0721  0877               	movf	??_Lcd_Set_Cursor,w
  3980  0722  00F8               	movwf	??_Lcd_Set_Cursor+1
  3981  0723  0878               	movf	??_Lcd_Set_Cursor+1,w
  3982  0724  00A1               	movwf	Lcd_Set_Cursor@z
  3983  0725                     l1488:
  3984                           
  3985                           ;LCD.c: 35:         y = temp & 0x0F;
  3986  0725  0823               	movf	Lcd_Set_Cursor@temp,w
  3987  0726  390F               	andlw	15
  3988  0727  00F7               	movwf	??_Lcd_Set_Cursor
  3989  0728  0877               	movf	??_Lcd_Set_Cursor,w
  3990  0729  00A2               	movwf	Lcd_Set_Cursor@y
  3991  072A                     l1490:
  3992                           
  3993                           ;LCD.c: 36:         Lcd_Cmd(z);
  3994  072A  0821               	movf	Lcd_Set_Cursor@z,w
  3995  072B  120A  158A  26C9  120A  118A  	fcall	_Lcd_Cmd
  3996  0730                     l1492:
  3997                           
  3998                           ;LCD.c: 37:         Lcd_Cmd(y);
  3999  0730  1283               	bcf	3,5	;RP0=0, select bank0
  4000  0731  1303               	bcf	3,6	;RP1=0, select bank0
  4001  0732  0822               	movf	Lcd_Set_Cursor@y,w
  4002  0733  120A  158A  26C9  120A  118A  	fcall	_Lcd_Cmd
  4003                           
  4004                           ;LCD.c: 38:     } else if (a == 2) {
  4005  0738  2F63               	goto	l78
  4006  0739                     l1494:
  4007  0739  3002               	movlw	2
  4008  073A  0620               	xorwf	Lcd_Set_Cursor@a,w
  4009  073B  1D03               	btfss	3,2
  4010  073C  2F3E               	goto	u1211
  4011  073D  2F3F               	goto	u1210
  4012  073E                     u1211:
  4013  073E  2F63               	goto	l78
  4014  073F                     u1210:
  4015  073F                     l1496:
  4016                           
  4017                           ;LCD.c: 39:         temp = 0xC0 + b - 1;
  4018  073F  0876               	movf	Lcd_Set_Cursor@b,w
  4019  0740  3EBF               	addlw	191
  4020  0741  00F7               	movwf	??_Lcd_Set_Cursor
  4021  0742  0877               	movf	??_Lcd_Set_Cursor,w
  4022  0743  00A3               	movwf	Lcd_Set_Cursor@temp
  4023                           
  4024                           ;LCD.c: 40:         z = temp >> 4;
  4025  0744  0823               	movf	Lcd_Set_Cursor@temp,w
  4026  0745  00F7               	movwf	??_Lcd_Set_Cursor
  4027  0746  3004               	movlw	4
  4028  0747                     u1225:
  4029  0747  1003               	clrc
  4030  0748  0CF7               	rrf	??_Lcd_Set_Cursor,f
  4031  0749  3EFF               	addlw	-1
  4032  074A  1D03               	skipz
  4033  074B  2F47               	goto	u1225
  4034  074C  0877               	movf	??_Lcd_Set_Cursor,w
  4035  074D  00F8               	movwf	??_Lcd_Set_Cursor+1
  4036  074E  0878               	movf	??_Lcd_Set_Cursor+1,w
  4037  074F  00A1               	movwf	Lcd_Set_Cursor@z
  4038  0750                     l1498:
  4039                           
  4040                           ;LCD.c: 41:         y = temp & 0xF0;
  4041  0750  0823               	movf	Lcd_Set_Cursor@temp,w
  4042  0751  39F0               	andlw	240
  4043  0752  00F7               	movwf	??_Lcd_Set_Cursor
  4044  0753  0877               	movf	??_Lcd_Set_Cursor,w
  4045  0754  00A2               	movwf	Lcd_Set_Cursor@y
  4046  0755                     l1500:
  4047                           
  4048                           ;LCD.c: 42:         Lcd_Cmd(z);
  4049  0755  0821               	movf	Lcd_Set_Cursor@z,w
  4050  0756  120A  158A  26C9  120A  118A  	fcall	_Lcd_Cmd
  4051  075B                     l1502:
  4052                           
  4053                           ;LCD.c: 43:         Lcd_Cmd(y);
  4054  075B  1283               	bcf	3,5	;RP0=0, select bank0
  4055  075C  1303               	bcf	3,6	;RP1=0, select bank0
  4056  075D  0822               	movf	Lcd_Set_Cursor@y,w
  4057  075E  120A  158A  26C9  120A  118A  	fcall	_Lcd_Cmd
  4058  0763                     l78:
  4059  0763  0008               	return
  4060  0764                     __end_of_Lcd_Set_Cursor:
  4061                           
  4062                           	psect	text16
  4063  0764                     __ptext16:	
  4064 ;; *************** function _Lcd_Init *****************
  4065 ;; Defined at:
  4066 ;;		line 47 in file "LCD.c"
  4067 ;; Parameters:    Size  Location     Type
  4068 ;;		None
  4069 ;; Auto vars:     Size  Location     Type
  4070 ;;		None
  4071 ;; Return value:  Size  Location     Type
  4072 ;;                  1    wreg      void 
  4073 ;; Registers used:
  4074 ;;		wreg, status,2, status,0, pclath, cstack
  4075 ;; Tracked objects:
  4076 ;;		On entry : 0/0
  4077 ;;		On exit  : 0/0
  4078 ;;		Unchanged: 0/0
  4079 ;; Data sizes:     COMMON   BANK0   BANK1   BANK3   BANK2
  4080 ;;      Params:         0       0       0       0       0
  4081 ;;      Locals:         0       0       0       0       0
  4082 ;;      Temps:          2       0       0       0       0
  4083 ;;      Totals:         2       0       0       0       0
  4084 ;;Total ram usage:        2 bytes
  4085 ;; Hardware stack levels used:    1
  4086 ;; Hardware stack levels required when called:    3
  4087 ;; This function calls:
  4088 ;;		_Lcd_Cmd
  4089 ;;		_Lcd_Port
  4090 ;; This function is called by:
  4091 ;;		_main
  4092 ;; This function uses a non-reentrant model
  4093 ;;
  4094                           
  4095                           
  4096                           ;psect for function _Lcd_Init
  4097  0764                     _Lcd_Init:
  4098  0764                     l1504:	
  4099                           ;incstack = 0
  4100                           ; Regs used in _Lcd_Init: [wreg+status,2+status,0+pclath+cstack]
  4101                           
  4102                           
  4103                           ;LCD.c: 48:     Lcd_Port(0x00);
  4104  0764  3000               	movlw	0
  4105  0765  120A  158A  2670  120A  118A  	fcall	_Lcd_Port
  4106  076A                     l1506:
  4107                           
  4108                           ;LCD.c: 49:     _delay((unsigned long)((20)*(4000000/4000.0)));
  4109  076A  301A               	movlw	26
  4110  076B  00F7               	movwf	??_Lcd_Init+1
  4111  076C  30F8               	movlw	248
  4112  076D  00F6               	movwf	??_Lcd_Init
  4113  076E                     u1927:
  4114  076E  0BF6               	decfsz	??_Lcd_Init,f
  4115  076F  2F6E               	goto	u1927
  4116  0770  0BF7               	decfsz	??_Lcd_Init+1,f
  4117  0771  2F6E               	goto	u1927
  4118  0772  0000               	nop
  4119  0773                     l1508:
  4120                           
  4121                           ;LCD.c: 50:     Lcd_Cmd(0x30);
  4122  0773  3030               	movlw	48
  4123  0774  120A  158A  26C9  120A  118A  	fcall	_Lcd_Cmd
  4124                           
  4125                           ;LCD.c: 51:     _delay((unsigned long)((5)*(4000000/4000.0)));
  4126  0779  3007               	movlw	7
  4127  077A  00F7               	movwf	??_Lcd_Init+1
  4128  077B  307D               	movlw	125
  4129  077C  00F6               	movwf	??_Lcd_Init
  4130  077D                     u1937:
  4131  077D  0BF6               	decfsz	??_Lcd_Init,f
  4132  077E  2F7D               	goto	u1937
  4133  077F  0BF7               	decfsz	??_Lcd_Init+1,f
  4134  0780  2F7D               	goto	u1937
  4135  0781                     l1510:
  4136                           
  4137                           ;LCD.c: 52:     Lcd_Cmd(0x30);
  4138  0781  3030               	movlw	48
  4139  0782  120A  158A  26C9  120A  118A  	fcall	_Lcd_Cmd
  4140  0787                     l1512:
  4141                           
  4142                           ;LCD.c: 53:     _delay((unsigned long)((200)*(4000000/4000000.0)));
  4143  0787  3042               	movlw	66
  4144  0788  00F6               	movwf	??_Lcd_Init
  4145  0789                     u1947:
  4146  0789  0BF6               	decfsz	??_Lcd_Init,f
  4147  078A  2F89               	goto	u1947
  4148  078B  0000               	nop
  4149                           
  4150                           ;LCD.c: 54:     Lcd_Cmd(0x30);
  4151  078C  3030               	movlw	48
  4152  078D  120A  158A  26C9  120A  118A  	fcall	_Lcd_Cmd
  4153                           
  4154                           ;LCD.c: 56:     Lcd_Cmd(0x3C);
  4155  0792  303C               	movlw	60
  4156  0793  120A  158A  26C9  120A  118A  	fcall	_Lcd_Cmd
  4157                           
  4158                           ;LCD.c: 58:     Lcd_Cmd(0x08);
  4159  0798  3008               	movlw	8
  4160  0799  120A  158A  26C9  120A  118A  	fcall	_Lcd_Cmd
  4161                           
  4162                           ;LCD.c: 60:     Lcd_Cmd(0x01);
  4163  079E  3001               	movlw	1
  4164  079F  120A  158A  26C9  120A  118A  	fcall	_Lcd_Cmd
  4165                           
  4166                           ;LCD.c: 62:     Lcd_Cmd(0x06);
  4167  07A4  3006               	movlw	6
  4168  07A5  120A  158A  26C9  120A  118A  	fcall	_Lcd_Cmd
  4169  07AA                     l81:
  4170  07AA  0008               	return
  4171  07AB                     __end_of_Lcd_Init:
  4172                           
  4173                           	psect	text17
  4174  0EA8                     __ptext17:	
  4175 ;; *************** function _Lcd_Clear *****************
  4176 ;; Defined at:
  4177 ;;		line 25 in file "LCD.c"
  4178 ;; Parameters:    Size  Location     Type
  4179 ;;		None
  4180 ;; Auto vars:     Size  Location     Type
  4181 ;;		None
  4182 ;; Return value:  Size  Location     Type
  4183 ;;                  1    wreg      void 
  4184 ;; Registers used:
  4185 ;;		wreg, status,2, status,0, pclath, cstack
  4186 ;; Tracked objects:
  4187 ;;		On entry : 0/0
  4188 ;;		On exit  : 0/0
  4189 ;;		Unchanged: 0/0
  4190 ;; Data sizes:     COMMON   BANK0   BANK1   BANK3   BANK2
  4191 ;;      Params:         0       0       0       0       0
  4192 ;;      Locals:         0       0       0       0       0
  4193 ;;      Temps:          0       0       0       0       0
  4194 ;;      Totals:         0       0       0       0       0
  4195 ;;Total ram usage:        0 bytes
  4196 ;; Hardware stack levels used:    1
  4197 ;; Hardware stack levels required when called:    3
  4198 ;; This function calls:
  4199 ;;		_Lcd_Cmd
  4200 ;; This function is called by:
  4201 ;;		_main
  4202 ;; This function uses a non-reentrant model
  4203 ;;
  4204                           
  4205                           
  4206                           ;psect for function _Lcd_Clear
  4207  0EA8                     _Lcd_Clear:
  4208  0EA8                     l1482:	
  4209                           ;incstack = 0
  4210                           ; Regs used in _Lcd_Clear: [wreg+status,2+status,0+pclath+cstack]
  4211                           
  4212                           
  4213                           ;LCD.c: 26:     Lcd_Cmd(0);
  4214  0EA8  3000               	movlw	0
  4215  0EA9  120A  158A  26C9  120A  158A  	fcall	_Lcd_Cmd
  4216                           
  4217                           ;LCD.c: 27:     Lcd_Cmd(1);
  4218  0EAE  3001               	movlw	1
  4219  0EAF  120A  158A  26C9  120A  158A  	fcall	_Lcd_Cmd
  4220  0EB4                     l72:
  4221  0EB4  0008               	return
  4222  0EB5                     __end_of_Lcd_Clear:
  4223                           
  4224                           	psect	text18
  4225  0EC9                     __ptext18:	
  4226 ;; *************** function _Lcd_Cmd *****************
  4227 ;; Defined at:
  4228 ;;		line 17 in file "LCD.c"
  4229 ;; Parameters:    Size  Location     Type
  4230 ;;  a               1    wreg     unsigned char 
  4231 ;; Auto vars:     Size  Location     Type
  4232 ;;  a               1    5[COMMON] unsigned char 
  4233 ;; Return value:  Size  Location     Type
  4234 ;;                  1    wreg      void 
  4235 ;; Registers used:
  4236 ;;		wreg, status,2, status,0, pclath, cstack
  4237 ;; Tracked objects:
  4238 ;;		On entry : 0/0
  4239 ;;		On exit  : 0/0
  4240 ;;		Unchanged: 0/0
  4241 ;; Data sizes:     COMMON   BANK0   BANK1   BANK3   BANK2
  4242 ;;      Params:         0       0       0       0       0
  4243 ;;      Locals:         1       0       0       0       0
  4244 ;;      Temps:          2       0       0       0       0
  4245 ;;      Totals:         3       0       0       0       0
  4246 ;;Total ram usage:        3 bytes
  4247 ;; Hardware stack levels used:    1
  4248 ;; Hardware stack levels required when called:    2
  4249 ;; This function calls:
  4250 ;;		_Lcd_Port
  4251 ;; This function is called by:
  4252 ;;		_Lcd_Clear
  4253 ;;		_Lcd_Set_Cursor
  4254 ;;		_Lcd_Init
  4255 ;;		_Lcd_Shift_Right
  4256 ;;		_Lcd_Shift_Left
  4257 ;; This function uses a non-reentrant model
  4258 ;;
  4259                           
  4260                           
  4261                           ;psect for function _Lcd_Cmd
  4262  0EC9                     _Lcd_Cmd:
  4263                           
  4264                           ;incstack = 0
  4265                           ; Regs used in _Lcd_Cmd: [wreg+status,2+status,0+pclath+cstack]
  4266                           ;Lcd_Cmd@a stored from wreg
  4267  0EC9  00F5               	movwf	Lcd_Cmd@a
  4268  0ECA                     l1378:
  4269                           
  4270                           ;LCD.c: 18:     RE0 = 0;
  4271  0ECA  1283               	bcf	3,5	;RP0=0, select bank0
  4272  0ECB  1303               	bcf	3,6	;RP1=0, select bank0
  4273  0ECC  1009               	bcf	9,0	;volatile
  4274  0ECD                     l1380:
  4275                           
  4276                           ;LCD.c: 19:     Lcd_Port(a);
  4277  0ECD  0875               	movf	Lcd_Cmd@a,w
  4278  0ECE  120A  158A  2670  120A  158A  	fcall	_Lcd_Port
  4279  0ED3                     l1382:
  4280                           
  4281                           ;LCD.c: 20:     RE1 = 1;
  4282  0ED3  1283               	bcf	3,5	;RP0=0, select bank0
  4283  0ED4  1303               	bcf	3,6	;RP1=0, select bank0
  4284  0ED5  1489               	bsf	9,1	;volatile
  4285  0ED6                     l1384:
  4286                           
  4287                           ;LCD.c: 21:     _delay((unsigned long)((4)*(4000000/4000.0)));
  4288  0ED6  3006               	movlw	6
  4289  0ED7  00F4               	movwf	??_Lcd_Cmd+1
  4290  0ED8  3030               	movlw	48
  4291  0ED9  00F3               	movwf	??_Lcd_Cmd
  4292  0EDA                     u1957:
  4293  0EDA  0BF3               	decfsz	??_Lcd_Cmd,f
  4294  0EDB  2EDA               	goto	u1957
  4295  0EDC  0BF4               	decfsz	??_Lcd_Cmd+1,f
  4296  0EDD  2EDA               	goto	u1957
  4297  0EDE  0000               	nop
  4298  0EDF                     l1386:
  4299                           
  4300                           ;LCD.c: 22:     RE1 = 0;
  4301  0EDF  1283               	bcf	3,5	;RP0=0, select bank0
  4302  0EE0  1303               	bcf	3,6	;RP1=0, select bank0
  4303  0EE1  1089               	bcf	9,1	;volatile
  4304  0EE2                     l69:
  4305  0EE2  0008               	return
  4306  0EE3                     __end_of_Lcd_Cmd:
  4307                           
  4308                           	psect	text19
  4309  0E70                     __ptext19:	
  4310 ;; *************** function _Lcd_Port *****************
  4311 ;; Defined at:
  4312 ;;		line 12 in file "LCD.c"
  4313 ;; Parameters:    Size  Location     Type
  4314 ;;  a               1    wreg     unsigned char 
  4315 ;; Auto vars:     Size  Location     Type
  4316 ;;  a               1    2[COMMON] unsigned char 
  4317 ;; Return value:  Size  Location     Type
  4318 ;;                  1    wreg      void 
  4319 ;; Registers used:
  4320 ;;		wreg
  4321 ;; Tracked objects:
  4322 ;;		On entry : 0/0
  4323 ;;		On exit  : 0/0
  4324 ;;		Unchanged: 0/0
  4325 ;; Data sizes:     COMMON   BANK0   BANK1   BANK3   BANK2
  4326 ;;      Params:         0       0       0       0       0
  4327 ;;      Locals:         1       0       0       0       0
  4328 ;;      Temps:          0       0       0       0       0
  4329 ;;      Totals:         1       0       0       0       0
  4330 ;;Total ram usage:        1 bytes
  4331 ;; Hardware stack levels used:    1
  4332 ;; Hardware stack levels required when called:    1
  4333 ;; This function calls:
  4334 ;;		Nothing
  4335 ;; This function is called by:
  4336 ;;		_Lcd_Cmd
  4337 ;;		_Lcd_Init
  4338 ;;		_Lcd_Write_Char
  4339 ;; This function uses a non-reentrant model
  4340 ;;
  4341                           
  4342                           
  4343                           ;psect for function _Lcd_Port
  4344  0E70                     _Lcd_Port:
  4345                           
  4346                           ;incstack = 0
  4347                           ; Regs used in _Lcd_Port: [wreg]
  4348                           ;Lcd_Port@a stored from wreg
  4349  0E70  00F2               	movwf	Lcd_Port@a
  4350  0E71                     l1336:
  4351                           
  4352                           ;LCD.c: 13:     PORTD = a;
  4353  0E71  0872               	movf	Lcd_Port@a,w
  4354  0E72  1283               	bcf	3,5	;RP0=0, select bank0
  4355  0E73  1303               	bcf	3,6	;RP1=0, select bank0
  4356  0E74  0088               	movwf	8	;volatile
  4357  0E75                     l66:
  4358  0E75  0008               	return
  4359  0E76                     __end_of_Lcd_Port:
  4360                           
  4361                           	psect	text20
  4362  0E91                     __ptext20:	
  4363 ;; *************** function _I2C_Master_Write *****************
  4364 ;; Defined at:
  4365 ;;		line 65 in file "I2C.c"
  4366 ;; Parameters:    Size  Location     Type
  4367 ;;  d               2    2[COMMON] unsigned int 
  4368 ;; Auto vars:     Size  Location     Type
  4369 ;;		None
  4370 ;; Return value:  Size  Location     Type
  4371 ;;                  1    wreg      void 
  4372 ;; Registers used:
  4373 ;;		wreg, status,2, status,0, pclath, cstack
  4374 ;; Tracked objects:
  4375 ;;		On entry : 0/0
  4376 ;;		On exit  : 0/0
  4377 ;;		Unchanged: 0/0
  4378 ;; Data sizes:     COMMON   BANK0   BANK1   BANK3   BANK2
  4379 ;;      Params:         2       0       0       0       0
  4380 ;;      Locals:         0       0       0       0       0
  4381 ;;      Temps:          0       0       0       0       0
  4382 ;;      Totals:         2       0       0       0       0
  4383 ;;Total ram usage:        2 bytes
  4384 ;; Hardware stack levels used:    1
  4385 ;; Hardware stack levels required when called:    2
  4386 ;; This function calls:
  4387 ;;		_I2C_Master_Wait
  4388 ;; This function is called by:
  4389 ;;		_main
  4390 ;; This function uses a non-reentrant model
  4391 ;;
  4392                           
  4393                           
  4394                           ;psect for function _I2C_Master_Write
  4395  0E91                     _I2C_Master_Write:
  4396  0E91                     l1462:	
  4397                           ;incstack = 0
  4398                           ; Regs used in _I2C_Master_Write: [wreg+status,2+status,0+pclath+cstack]
  4399                           
  4400                           
  4401                           ;I2C.c: 65: void I2C_Master_Write(unsigned d);I2C.c: 66: {;I2C.c: 67:     I2C_Master_Wai
      +                          t();
  4402  0E91  120A  158A  269B  120A  158A  	fcall	_I2C_Master_Wait
  4403  0E96                     l1464:
  4404                           
  4405                           ;I2C.c: 68:     SSPBUF = d;
  4406  0E96  0872               	movf	I2C_Master_Write@d,w
  4407  0E97  1283               	bcf	3,5	;RP0=0, select bank0
  4408  0E98  1303               	bcf	3,6	;RP1=0, select bank0
  4409  0E99  0093               	movwf	19	;volatile
  4410  0E9A                     l47:
  4411  0E9A  0008               	return
  4412  0E9B                     __end_of_I2C_Master_Write:
  4413                           
  4414                           	psect	text21
  4415  0E88                     __ptext21:	
  4416 ;; *************** function _I2C_Master_Stop *****************
  4417 ;; Defined at:
  4418 ;;		line 55 in file "I2C.c"
  4419 ;; Parameters:    Size  Location     Type
  4420 ;;		None
  4421 ;; Auto vars:     Size  Location     Type
  4422 ;;		None
  4423 ;; Return value:  Size  Location     Type
  4424 ;;                  1    wreg      void 
  4425 ;; Registers used:
  4426 ;;		wreg, status,2, status,0, pclath, cstack
  4427 ;; Tracked objects:
  4428 ;;		On entry : 0/0
  4429 ;;		On exit  : 0/0
  4430 ;;		Unchanged: 0/0
  4431 ;; Data sizes:     COMMON   BANK0   BANK1   BANK3   BANK2
  4432 ;;      Params:         0       0       0       0       0
  4433 ;;      Locals:         0       0       0       0       0
  4434 ;;      Temps:          0       0       0       0       0
  4435 ;;      Totals:         0       0       0       0       0
  4436 ;;Total ram usage:        0 bytes
  4437 ;; Hardware stack levels used:    1
  4438 ;; Hardware stack levels required when called:    2
  4439 ;; This function calls:
  4440 ;;		_I2C_Master_Wait
  4441 ;; This function is called by:
  4442 ;;		_main
  4443 ;; This function uses a non-reentrant model
  4444 ;;
  4445                           
  4446                           
  4447                           ;psect for function _I2C_Master_Stop
  4448  0E88                     _I2C_Master_Stop:
  4449  0E88                     l1458:	
  4450                           ;incstack = 0
  4451                           ; Regs used in _I2C_Master_Stop: [wreg+status,2+status,0+pclath+cstack]
  4452                           
  4453                           
  4454                           ;I2C.c: 57:     I2C_Master_Wait();
  4455  0E88  120A  158A  269B  120A  158A  	fcall	_I2C_Master_Wait
  4456  0E8D                     l1460:
  4457                           
  4458                           ;I2C.c: 58:     SSPCON2bits.PEN = 1;
  4459  0E8D  1683               	bsf	3,5	;RP0=1, select bank1
  4460  0E8E  1303               	bcf	3,6	;RP1=0, select bank1
  4461  0E8F  1511               	bsf	17,2	;volatile
  4462  0E90                     l44:
  4463  0E90  0008               	return
  4464  0E91                     __end_of_I2C_Master_Stop:
  4465                           
  4466                           	psect	text22
  4467  0E7F                     __ptext22:	
  4468 ;; *************** function _I2C_Master_Start *****************
  4469 ;; Defined at:
  4470 ;;		line 39 in file "I2C.c"
  4471 ;; Parameters:    Size  Location     Type
  4472 ;;		None
  4473 ;; Auto vars:     Size  Location     Type
  4474 ;;		None
  4475 ;; Return value:  Size  Location     Type
  4476 ;;                  1    wreg      void 
  4477 ;; Registers used:
  4478 ;;		wreg, status,2, status,0, pclath, cstack
  4479 ;; Tracked objects:
  4480 ;;		On entry : 0/0
  4481 ;;		On exit  : 0/0
  4482 ;;		Unchanged: 0/0
  4483 ;; Data sizes:     COMMON   BANK0   BANK1   BANK3   BANK2
  4484 ;;      Params:         0       0       0       0       0
  4485 ;;      Locals:         0       0       0       0       0
  4486 ;;      Temps:          0       0       0       0       0
  4487 ;;      Totals:         0       0       0       0       0
  4488 ;;Total ram usage:        0 bytes
  4489 ;; Hardware stack levels used:    1
  4490 ;; Hardware stack levels required when called:    2
  4491 ;; This function calls:
  4492 ;;		_I2C_Master_Wait
  4493 ;; This function is called by:
  4494 ;;		_main
  4495 ;; This function uses a non-reentrant model
  4496 ;;
  4497                           
  4498                           
  4499                           ;psect for function _I2C_Master_Start
  4500  0E7F                     _I2C_Master_Start:
  4501  0E7F                     l1454:	
  4502                           ;incstack = 0
  4503                           ; Regs used in _I2C_Master_Start: [wreg+status,2+status,0+pclath+cstack]
  4504                           
  4505                           
  4506                           ;I2C.c: 41:     I2C_Master_Wait();
  4507  0E7F  120A  158A  269B  120A  158A  	fcall	_I2C_Master_Wait
  4508  0E84                     l1456:
  4509                           
  4510                           ;I2C.c: 42:     SSPCON2bits.SEN = 1;
  4511  0E84  1683               	bsf	3,5	;RP0=1, select bank1
  4512  0E85  1303               	bcf	3,6	;RP1=0, select bank1
  4513  0E86  1411               	bsf	17,0	;volatile
  4514  0E87                     l38:
  4515  0E87  0008               	return
  4516  0E88                     __end_of_I2C_Master_Start:
  4517                           
  4518                           	psect	text23
  4519  0F9A                     __ptext23:	
  4520 ;; *************** function _I2C_Master_Read *****************
  4521 ;; Defined at:
  4522 ;;		line 74 in file "I2C.c"
  4523 ;; Parameters:    Size  Location     Type
  4524 ;;  a               2    2[COMMON] unsigned short 
  4525 ;; Auto vars:     Size  Location     Type
  4526 ;;  temp            2    6[COMMON] unsigned short 
  4527 ;; Return value:  Size  Location     Type
  4528 ;;                  2    2[COMMON] unsigned short 
  4529 ;; Registers used:
  4530 ;;		wreg, status,2, status,0, pclath, cstack
  4531 ;; Tracked objects:
  4532 ;;		On entry : 0/0
  4533 ;;		On exit  : 0/0
  4534 ;;		Unchanged: 0/0
  4535 ;; Data sizes:     COMMON   BANK0   BANK1   BANK3   BANK2
  4536 ;;      Params:         2       0       0       0       0
  4537 ;;      Locals:         2       0       0       0       0
  4538 ;;      Temps:          2       0       0       0       0
  4539 ;;      Totals:         6       0       0       0       0
  4540 ;;Total ram usage:        6 bytes
  4541 ;; Hardware stack levels used:    1
  4542 ;; Hardware stack levels required when called:    2
  4543 ;; This function calls:
  4544 ;;		_I2C_Master_Wait
  4545 ;; This function is called by:
  4546 ;;		_main
  4547 ;; This function uses a non-reentrant model
  4548 ;;
  4549                           
  4550                           
  4551                           ;psect for function _I2C_Master_Read
  4552  0F9A                     _I2C_Master_Read:
  4553  0F9A                     l1466:	
  4554                           ;incstack = 0
  4555                           ; Regs used in _I2C_Master_Read: [wreg+status,2+status,0+pclath+cstack]
  4556                           
  4557                           
  4558                           ;I2C.c: 74: unsigned short I2C_Master_Read(unsigned short a);I2C.c: 75: {;I2C.c: 76:    
      +                           unsigned short temp;;I2C.c: 77:     I2C_Master_Wait();
  4559  0F9A  120A  158A  269B  120A  158A  	fcall	_I2C_Master_Wait
  4560  0F9F                     l1468:
  4561                           
  4562                           ;I2C.c: 78:     SSPCON2bits.RCEN = 1;
  4563  0F9F  1683               	bsf	3,5	;RP0=1, select bank1
  4564  0FA0  1303               	bcf	3,6	;RP1=0, select bank1
  4565  0FA1  1591               	bsf	17,3	;volatile
  4566                           
  4567                           ;I2C.c: 79:     I2C_Master_Wait();
  4568  0FA2  120A  158A  269B  120A  158A  	fcall	_I2C_Master_Wait
  4569  0FA7                     l1470:
  4570                           
  4571                           ;I2C.c: 80:     temp = SSPBUF;
  4572  0FA7  1283               	bcf	3,5	;RP0=0, select bank0
  4573  0FA8  1303               	bcf	3,6	;RP1=0, select bank0
  4574  0FA9  0813               	movf	19,w	;volatile
  4575  0FAA  00F4               	movwf	??_I2C_Master_Read
  4576  0FAB  01F5               	clrf	??_I2C_Master_Read+1
  4577  0FAC  0874               	movf	??_I2C_Master_Read,w
  4578  0FAD  00F6               	movwf	I2C_Master_Read@temp
  4579  0FAE  0875               	movf	??_I2C_Master_Read+1,w
  4580  0FAF  00F7               	movwf	I2C_Master_Read@temp+1
  4581  0FB0                     l1472:
  4582                           
  4583                           ;I2C.c: 81:     I2C_Master_Wait();
  4584  0FB0  120A  158A  269B  120A  158A  	fcall	_I2C_Master_Wait
  4585  0FB5                     l1474:
  4586                           
  4587                           ;I2C.c: 82:     if(a == 1){
  4588  0FB5  0372               	decf	I2C_Master_Read@a,w
  4589  0FB6  0473               	iorwf	I2C_Master_Read@a+1,w
  4590  0FB7  1D03               	btfss	3,2
  4591  0FB8  2FBA               	goto	u1181
  4592  0FB9  2FBB               	goto	u1180
  4593  0FBA                     u1181:
  4594  0FBA  2FBF               	goto	l50
  4595  0FBB                     u1180:
  4596  0FBB                     l1476:
  4597                           
  4598                           ;I2C.c: 83:         SSPCON2bits.ACKDT = 0;
  4599  0FBB  1683               	bsf	3,5	;RP0=1, select bank1
  4600  0FBC  1303               	bcf	3,6	;RP1=0, select bank1
  4601  0FBD  1291               	bcf	17,5	;volatile
  4602                           
  4603                           ;I2C.c: 84:     }else{
  4604  0FBE  2FC2               	goto	l51
  4605  0FBF                     l50:
  4606                           
  4607                           ;I2C.c: 85:         SSPCON2bits.ACKDT = 1;
  4608  0FBF  1683               	bsf	3,5	;RP0=1, select bank1
  4609  0FC0  1303               	bcf	3,6	;RP1=0, select bank1
  4610  0FC1  1691               	bsf	17,5	;volatile
  4611  0FC2                     l51:	
  4612                           ;I2C.c: 86:     }
  4613                           
  4614                           
  4615                           ;I2C.c: 87:     SSPCON2bits.ACKEN = 1;
  4616  0FC2  1611               	bsf	17,4	;volatile
  4617  0FC3                     l1478:
  4618                           
  4619                           ;I2C.c: 88:     return temp;
  4620  0FC3  0877               	movf	I2C_Master_Read@temp+1,w
  4621  0FC4  00F3               	movwf	?_I2C_Master_Read+1
  4622  0FC5  0876               	movf	I2C_Master_Read@temp,w
  4623  0FC6  00F2               	movwf	?_I2C_Master_Read
  4624  0FC7                     l52:
  4625  0FC7  0008               	return
  4626  0FC8                     __end_of_I2C_Master_Read:
  4627                           
  4628                           	psect	text24
  4629  0E9B                     __ptext24:	
  4630 ;; *************** function _I2C_Master_Wait *****************
  4631 ;; Defined at:
  4632 ;;		line 32 in file "I2C.c"
  4633 ;; Parameters:    Size  Location     Type
  4634 ;;		None
  4635 ;; Auto vars:     Size  Location     Type
  4636 ;;		None
  4637 ;; Return value:  Size  Location     Type
  4638 ;;                  1    wreg      void 
  4639 ;; Registers used:
  4640 ;;		wreg, status,2
  4641 ;; Tracked objects:
  4642 ;;		On entry : 0/0
  4643 ;;		On exit  : 0/0
  4644 ;;		Unchanged: 0/0
  4645 ;; Data sizes:     COMMON   BANK0   BANK1   BANK3   BANK2
  4646 ;;      Params:         0       0       0       0       0
  4647 ;;      Locals:         0       0       0       0       0
  4648 ;;      Temps:          0       0       0       0       0
  4649 ;;      Totals:         0       0       0       0       0
  4650 ;;Total ram usage:        0 bytes
  4651 ;; Hardware stack levels used:    1
  4652 ;; Hardware stack levels required when called:    1
  4653 ;; This function calls:
  4654 ;;		Nothing
  4655 ;; This function is called by:
  4656 ;;		_I2C_Master_Start
  4657 ;;		_I2C_Master_Stop
  4658 ;;		_I2C_Master_Write
  4659 ;;		_I2C_Master_Read
  4660 ;;		_I2C_Master_RepeatedStart
  4661 ;; This function uses a non-reentrant model
  4662 ;;
  4663                           
  4664                           
  4665                           ;psect for function _I2C_Master_Wait
  4666  0E9B                     _I2C_Master_Wait:
  4667  0E9B                     l1374:	
  4668                           ;incstack = 0
  4669                           ; Regs used in _I2C_Master_Wait: [wreg+status,2]
  4670                           
  4671  0E9B                     l32:	
  4672                           ;I2C.c: 34:     while ((SSPSTAT & 0x04) || (SSPCON2 & 0x1F));
  4673                           
  4674  0E9B  1683               	bsf	3,5	;RP0=1, select bank1
  4675  0E9C  1303               	bcf	3,6	;RP1=0, select bank1
  4676  0E9D  1914               	btfsc	20,2	;volatile
  4677  0E9E  2EA0               	goto	u1021
  4678  0E9F  2EA1               	goto	u1020
  4679  0EA0                     u1021:
  4680  0EA0  2E9B               	goto	l32
  4681  0EA1                     u1020:
  4682  0EA1                     l1376:
  4683  0EA1  0811               	movf	17,w	;volatile
  4684  0EA2  391F               	andlw	31
  4685  0EA3  1D03               	btfss	3,2
  4686  0EA4  2EA6               	goto	u1031
  4687  0EA5  2EA7               	goto	u1030
  4688  0EA6                     u1031:
  4689  0EA6  2E9B               	goto	l32
  4690  0EA7                     u1030:
  4691  0EA7                     l35:
  4692  0EA7  0008               	return
  4693  0EA8                     __end_of_I2C_Master_Wait:
  4694                           
  4695                           	psect	text25
  4696  0E76                     __ptext25:	
  4697 ;; *************** function _isr *****************
  4698 ;; Defined at:
  4699 ;;		line 69 in file "master_main.c"
  4700 ;; Parameters:    Size  Location     Type
  4701 ;;		None
  4702 ;; Auto vars:     Size  Location     Type
  4703 ;;		None
  4704 ;; Return value:  Size  Location     Type
  4705 ;;                  1    wreg      void 
  4706 ;; Registers used:
  4707 ;;		None
  4708 ;; Tracked objects:
  4709 ;;		On entry : 0/0
  4710 ;;		On exit  : 0/0
  4711 ;;		Unchanged: 0/0
  4712 ;; Data sizes:     COMMON   BANK0   BANK1   BANK3   BANK2
  4713 ;;      Params:         0       0       0       0       0
  4714 ;;      Locals:         0       0       0       0       0
  4715 ;;      Temps:          2       0       0       0       0
  4716 ;;      Totals:         2       0       0       0       0
  4717 ;;Total ram usage:        2 bytes
  4718 ;; Hardware stack levels used:    1
  4719 ;; This function calls:
  4720 ;;		Nothing
  4721 ;; This function is called by:
  4722 ;;		Interrupt level 1
  4723 ;; This function uses a non-reentrant model
  4724 ;;
  4725                           
  4726                           
  4727                           ;psect for function _isr
  4728  0E76                     _isr:
  4729  0E76                     i1l1258:
  4730                           
  4731                           ;master_main.c: 70: 
  4732  0E76  138B               	bcf	11,7	;volatile
  4733                           
  4734                           ;master_main.c: 72:         Lcd_Write_Char(POS1);
  4735  0E77  178B               	bsf	11,7	;volatile
  4736  0E78                     i1l173:
  4737  0E78  0871               	movf	??_isr+1,w
  4738  0E79  008A               	movwf	10
  4739  0E7A  0E70               	swapf	??_isr,w
  4740  0E7B  0083               	movwf	3
  4741  0E7C  0EFE               	swapf	btemp,f
  4742  0E7D  0E7E               	swapf	btemp,w
  4743  0E7E  0009               	retfie
  4744  0E7F                     __end_of_isr:
  4745  007E                     btemp	set	126	;btemp
  4746  007E                     wtemp0	set	126
  4747                           
  4748                           	psect	intentry
  4749  0004                     __pintentry:	
  4750                           ;incstack = 0
  4751                           ; Regs used in _isr: []
  4752                           
  4753  0004                     interrupt_function:
  4754  007E                     saved_w	set	btemp
  4755  0004  00FE               	movwf	btemp
  4756  0005  0E03               	swapf	3,w
  4757  0006  00F0               	movwf	??_isr
  4758  0007  080A               	movf	10,w
  4759  0008  00F1               	movwf	??_isr+1
  4760  0009  120A  158A  2E76   	ljmp	_isr
  4761                           
  4762                           	psect	config
  4763                           
  4764                           ;Config register CONFIG1 @ 0x2007
  4765                           ;	Oscillator Selection bits
  4766                           ;	FOSC = INTRC_NOCLKOUT, INTOSCIO oscillator: I/O function on RA6/OSC2/CLKOUT pin, I/O f
      +                          unction on RA7/OSC1/CLKIN
  4767                           ;	Watchdog Timer Enable bit
  4768                           ;	WDTE = OFF, WDT disabled and can be enabled by SWDTEN bit of the WDTCON register
  4769                           ;	Power-up Timer Enable bit
  4770                           ;	PWRTE = ON, PWRT enabled
  4771                           ;	RE3/MCLR pin function select bit
  4772                           ;	MCLRE = OFF, RE3/MCLR pin function is digital input, MCLR internally tied to VDD
  4773                           ;	Code Protection bit
  4774                           ;	CP = OFF, Program memory code protection is disabled
  4775                           ;	Data Code Protection bit
  4776                           ;	CPD = OFF, Data memory code protection is disabled
  4777                           ;	Brown Out Reset Selection bits
  4778                           ;	BOREN = OFF, BOR disabled
  4779                           ;	Internal External Switchover bit
  4780                           ;	IESO = OFF, Internal/External Switchover mode is disabled
  4781                           ;	Fail-Safe Clock Monitor Enabled bit
  4782                           ;	FCMEN = OFF, Fail-Safe Clock Monitor is disabled
  4783                           ;	Low Voltage Programming Enable bit
  4784                           ;	LVP = OFF, RB3 pin has digital I/O, HV on MCLR must be used for programming
  4785                           ;	In-Circuit Debugger Mode bit
  4786                           ;	DEBUG = 0x1, unprogrammed default
  4787  2007                     	org	8199
  4788  2007  20C4               	dw	8388
  4789                           
  4790                           ;Config register CONFIG2 @ 0x2008
  4791                           ;	Brown-out Reset Selection bit
  4792                           ;	BOR4V = BOR40V, Brown-out Reset set to 4.0V
  4793                           ;	Flash Program Memory Self Write Enable bits
  4794                           ;	WRT = OFF, Write protection off
  4795  2008                     	org	8200
  4796  2008  3FFF               	dw	16383

Data Sizes:
    Strings     25
    Constant    0
    Data        0
    BSS         10
    Persistent  0
    Stack       0

Auto Spaces:
    Space          Size  Autos    Used
    COMMON           14     12      12
    BANK0            80     46      56
    BANK1            80      0       0
    BANK3            96      0       0
    BANK2            96      0       0

Pointer List with Targets:

    Lcd_Write_String@a	PTR unsigned char  size(1) Largest target is 17
		 -> STR_4(CODE[1]), STR_3(CODE[5]), STR_2(CODE[3]), STR_1(CODE[17]), 


Critical Paths under _main in COMMON

    _main->_VAL
    _I2C_Master_Init->___lldiv
    ___flmul->__Umul8_16
    _VAL->___lwdiv
    _Lcd_Write_String->_Lcd_Write_Char
    _Lcd_Write_Char->_Lcd_Port
    _Lcd_Set_Cursor->_Lcd_Cmd
    _Lcd_Init->_Lcd_Cmd
    _Lcd_Clear->_Lcd_Cmd
    _Lcd_Cmd->_Lcd_Port

Critical Paths under _isr in COMMON

    None.

Critical Paths under _main in BANK0

    _main->___fltol
    _setup->_I2C_Master_Init
    _I2C_Master_Init->___lldiv
    ___fltol->___flmul
    ___flmul->___xxtofl

Critical Paths under _isr in BANK0

    None.

Critical Paths under _main in BANK1

    None.

Critical Paths under _isr in BANK1

    None.

Critical Paths under _main in BANK3

    None.

Critical Paths under _isr in BANK3

    None.

Critical Paths under _main in BANK2

    None.

Critical Paths under _isr in BANK2

    None.

Call Graph Tables:

 ---------------------------------------------------------------------------------
 (Depth) Function   	        Calls       Base Space   Used Autos Params    Refs
 ---------------------------------------------------------------------------------
 (0) _main                                                 3     3      0    6258
                                             43 BANK0      3     3      0
                    _I2C_Master_Read
                   _I2C_Master_Start
                    _I2C_Master_Stop
                   _I2C_Master_Write
                          _Lcd_Clear
                           _Lcd_Init
                     _Lcd_Set_Cursor
                     _Lcd_Write_Char
                   _Lcd_Write_String
                                _VAL
                            ___flmul
                            ___fltol
                           ___xxtofl
                       _alarmaBuzzer
                    _moverVentilador
                              _setup
 ---------------------------------------------------------------------------------
 (1) _setup                                                0     0      0     412
                    _I2C_Master_Init
 ---------------------------------------------------------------------------------
 (2) _I2C_Master_Init                                      8     4      4     412
                                              5 BANK0      8     4      4
                            ___lldiv
 ---------------------------------------------------------------------------------
 (3) ___lldiv                                             14     6      8     314
                                              2 COMMON     9     1      8
                                              0 BANK0      5     5      0
 ---------------------------------------------------------------------------------
 (1) _moverVentilador                                      0     0      0       0
 ---------------------------------------------------------------------------------
 (1) _alarmaBuzzer                                         3     3      0       0
                                              2 COMMON     3     3      0
 ---------------------------------------------------------------------------------
 (1) ___xxtofl                                            14    10      4     398
                                              2 COMMON     8     4      4
                                              0 BANK0      6     6      0
 ---------------------------------------------------------------------------------
 (1) ___fltol                                             11     7      4     305
                                             32 BANK0     11     7      4
                            ___flmul (ARG)
                           ___xxtofl (ARG)
 ---------------------------------------------------------------------------------
 (1) ___flmul                                             26    18      8    2417
                                              6 BANK0     26    18      8
                          __Umul8_16
                           ___xxtofl (ARG)
 ---------------------------------------------------------------------------------
 (2) __Umul8_16                                            9     7      2     799
                                              2 COMMON     9     7      2
 ---------------------------------------------------------------------------------
 (1) _VAL                                                  6     4      2    1225
                                             10 COMMON     2     0      2
                                              0 BANK0      4     4      0
                            ___lwdiv
                             ___wmul
 ---------------------------------------------------------------------------------
 (2) ___wmul                                               6     2      4     396
                                              2 COMMON     6     2      4
 ---------------------------------------------------------------------------------
 (2) ___lwdiv                                              8     4      4     466
                                              2 COMMON     8     4      4
 ---------------------------------------------------------------------------------
 (1) _Lcd_Write_String                                     3     3      0     312
                                              7 COMMON     3     3      0
                     _Lcd_Write_Char
 ---------------------------------------------------------------------------------
 (2) _Lcd_Write_Char                                       4     4      0      90
                                              3 COMMON     4     4      0
                           _Lcd_Port
 ---------------------------------------------------------------------------------
 (1) _Lcd_Set_Cursor                                       7     6      1     466
                                              6 COMMON     3     2      1
                                              0 BANK0      4     4      0
                            _Lcd_Cmd
 ---------------------------------------------------------------------------------
 (1) _Lcd_Init                                             2     2      0      66
                                              6 COMMON     2     2      0
                            _Lcd_Cmd
                           _Lcd_Port
 ---------------------------------------------------------------------------------
 (1) _Lcd_Clear                                            0     0      0      44
                            _Lcd_Cmd
 ---------------------------------------------------------------------------------
 (2) _Lcd_Cmd                                              3     3      0      44
                                              3 COMMON     3     3      0
                           _Lcd_Port
 ---------------------------------------------------------------------------------
 (3) _Lcd_Port                                             1     1      0      22
                                              2 COMMON     1     1      0
 ---------------------------------------------------------------------------------
 (1) _I2C_Master_Write                                     2     0      2     250
                                              2 COMMON     2     0      2
                    _I2C_Master_Wait
 ---------------------------------------------------------------------------------
 (1) _I2C_Master_Stop                                      0     0      0       0
                    _I2C_Master_Wait
 ---------------------------------------------------------------------------------
 (1) _I2C_Master_Start                                     0     0      0       0
                    _I2C_Master_Wait
 ---------------------------------------------------------------------------------
 (1) _I2C_Master_Read                                      6     4      2     273
                                              2 COMMON     6     4      2
                    _I2C_Master_Wait
 ---------------------------------------------------------------------------------
 (2) _I2C_Master_Wait                                      0     0      0       0
 ---------------------------------------------------------------------------------
 Estimated maximum stack depth 3
 ---------------------------------------------------------------------------------
 (Depth) Function   	        Calls       Base Space   Used Autos Params    Refs
 ---------------------------------------------------------------------------------
 (4) _isr                                                  2     2      0       0
                                              0 COMMON     2     2      0
 ---------------------------------------------------------------------------------
 Estimated maximum stack depth 4
 ---------------------------------------------------------------------------------

 Call Graph Graphs:

 _main (ROOT)
   _I2C_Master_Read
     _I2C_Master_Wait
   _I2C_Master_Start
     _I2C_Master_Wait
   _I2C_Master_Stop
     _I2C_Master_Wait
   _I2C_Master_Write
     _I2C_Master_Wait
   _Lcd_Clear
     _Lcd_Cmd
       _Lcd_Port
   _Lcd_Init
     _Lcd_Cmd
       _Lcd_Port
     _Lcd_Port
   _Lcd_Set_Cursor
     _Lcd_Cmd
       _Lcd_Port
   _Lcd_Write_Char
     _Lcd_Port
   _Lcd_Write_String
     _Lcd_Write_Char
       _Lcd_Port
   _VAL
     ___lwdiv
     ___wmul
   ___flmul
     __Umul8_16
     ___xxtofl (ARG)
   ___fltol
     ___flmul (ARG)
       __Umul8_16
       ___xxtofl (ARG)
     ___xxtofl (ARG)
   ___xxtofl
   _alarmaBuzzer
   _moverVentilador
   _setup
     _I2C_Master_Init
       ___lldiv

 _isr (ROOT)

 Address spaces:
Name               Size   Autos  Total    Cost      Usage
BITCOMMON            E      0       0       0        0.0%
EEDATA             100      0       0       0        0.0%
NULL                 0      0       0       0        0.0%
CODE                 0      0       0       0        0.0%
COMMON               E      C       C       1       85.7%
BITSFR0              0      0       0       1        0.0%
SFR0                 0      0       0       1        0.0%
BITSFR1              0      0       0       2        0.0%
SFR1                 0      0       0       2        0.0%
STACK                0      0       0       2        0.0%
ABS                  0      0      44       3        0.0%
BITBANK0            50      0       0       4        0.0%
BITSFR3              0      0       0       4        0.0%
SFR3                 0      0       0       4        0.0%
BANK0               50     2E      38       5       70.0%
BITSFR2              0      0       0       5        0.0%
SFR2                 0      0       0       5        0.0%
BITBANK1            50      0       0       6        0.0%
BANK1               50      0       0       7        0.0%
BITBANK3            60      0       0       8        0.0%
BANK3               60      0       0       9        0.0%
BITBANK2            60      0       0      10        0.0%
BANK2               60      0       0      11        0.0%
DATA                 0      0      44      12        0.0%


Microchip Technology PIC Macro Assembler V2.31 build 20201012212115 
Symbol Table                                                                                   Wed Aug 25 00:08:39 2021

                        pc 0002                         l32 0E9B                         l50 0FBF  
                       l35 0EA7                         l51 0FC2                         l52 0FC7  
                       l44 0E90                         l29 0FFF                         l38 0E87  
                       l47 0E9A                         l72 0EB4                         l81 07AA  
                       l66 0E75                         l90 0F24                         l84 0EFF  
                       l69 0EE2                         l78 0763                         fsr 0004  
      ___wmul@multiplicand 0074        __Umul8_16@word_mpld 0078                        l318 070B  
                      l191 07FC                        l193 07FD                        l185 0F99  
                      l282 0F31                        l284 0F49                        l188 06A3  
                      l196 0EC8                        l721 0561                        l554 07EE  
                      l475 061A                        l715 051C                        l468 062F  
                      l717 05B3                        l478 062F                        l671 037F  
                      l728 057D                        l729 0589                        l690 0F5E  
                      l683 0373                        l692 0F70                        l677 02EB  
                      _GIE 005F                        _RE0 0048                        _RE1 0049  
                      _VAL 0630                        u940 06B6                        u941 06B5  
                      u960 06CA                        u961 06C9                        u955 06BB  
                      u980 06E5                        u981 06E4                        u975 06CC  
                      u985 06E1                        u995 06F5                        _isr 0E76  
                      fsr0 0004               ___flmul@aexp 0038               ___flmul@bexp 0039  
             ___flmul@sign 0033               ___flmul@temp 003E               ___flmul@prod 003A  
                     ?_VAL 007A               ___fltol@exp1 004A                       l1400 0F25  
                     l1410 0F45                       l1402 0F27                       l1500 0755  
                     l1420 07B6                       l1404 0F2B                       l1340 06B6  
                     l1510 0781                       l1502 075B                       l1430 07DC  
                     l1422 07BD                       l1414 07AB                       l1406 0F38  
                     l1350 06E5                       l1342 06B9                       l1336 0E71  
                     l1512 0787                       l1504 0764                       l1520 0F17  
                     l1432 07DD                       l1424 07C1                       l1416 07AD  
                     l1408 0F3F                       l1440 0F4B                       l1600 001F  
                     l1352 06F3                       l1344 06C6                       l1506 076A  
                     l1514 0F01                       l1434 07E4                       l1426 07C5  
                     l1418 07B3                       l1450 0F6C                       l1442 0F4D  
                     l1610 0036                       l1602 0026                       l1354 06F4  
                     l1346 06CA                       l1338 06A4                       l1370 0FFD  
                     l1362 0FC8                       l1530 0F87                       l1522 0F71  
                     l1460 0E8D                       l1380 0ECD                       l1508 0773  
                     l1516 0F04                       l1428 07D6                       l1436 07EA  
                     l1444 0F54                       l1700 02D0                       l1620 0052  
                     l1612 003B                       l1604 002C                       l1540 07FA  
                     l1356 06FD                       l1348 06D3                       l1372 0FFE  
                     l1364 0FCC                       l1532 0F88                       l1524 0F82  
                     l1374 0E9B                       l1470 0FA7                       l1454 0E7F  
                     l1462 0E91                       l1382 0ED3                       l1390 0EEC  
                     l1518 0F11                       l1550 0636                       l1446 0F58  
                     l1710 02F5                       l1702 02D4                       l1630 0067  
                     l1622 0058                       l1614 0043                       l1606 0030  
                     l1542 0EB5                       l1358 0703                       l1366 0FCF  
                     l1534 0F89                       l1526 0F85                       l1376 0EA1  
                     l1472 0FB0                       l1456 0E84                       l1464 0E96  
                     l1384 0ED6                       l1392 0EEF                       l1560 0699  
                     l1552 0649                       l1448 0F67                       l1720 0333  
                     l1712 0303                       l1704 02E8                       l1640 0083  
                     l1632 006F                       l1624 005C                       l1616 0045  
                     l1608 0031                       l1544 0EB8                       l1368 0FFC  
                     l1536 0F8A                       l1528 0F86                       l1800 03AB  
                     l1474 0FB5                       l1466 0F9A                       l1458 0E88  
                     l1386 0EDF                       l1378 0ECA                       l1482 0EA8  
                     l1490 072A                       l1394 0EF5                       l1562 069E  
                     l1554 0663                       l1730 0367                       l1722 033E  
                     l1714 0307                       l1650 00C6                       l1634 0071  
                     l1626 005D                       l1618 004D                       l1570 05CA  
                     l1546 0EC5                       l1538 07EF                       l1810 03DB  
                     l1802 03B9                       l1476 0FBB                       l1468 0F9F  
                     l1492 0730                       l1484 070F                       l1396 0EF8  
                     l1388 0EE4                       l1556 0676                       l1548 0630  
                     l1732 036B                       l1724 034D                       l1716 0320  
                     l1708 02F0                       l1660 014F                       l1652 00E2  
                     l1644 008C                       l1636 0079                       l1628 0062  
                     l1580 05EE                       l1572 05DF                       l1564 05B4  
                     l1740 04FB                       l1820 0406                       l1812 03E9  
                     l1804 03BE       __end_of_alarmaBuzzer 0EC9                       l1478 0FC3  
                     l1486 0714                       l1494 0739                       l1398 0EFC  
                     l1558 0694                       l1734 036C                       l1726 0357  
                     l1718 0326                       l1670 01C2                       l1662 015F  
                     l1654 010E                       l1646 009C                       l1638 007E  
                     l1574 05E0                       l1566 05C1                       l1742 0500  
                     l1830 0437                       l1822 040F                       l1814 03EE  
                     l1806 03CD                       l1496 073F                       l1488 0725  
                     l1736 0377                       l1728 0359                       l1680 026F  
                     l1672 01DF                       l1664 017C                       l1656 012A  
                     l1648 00A9                       l1576 05E8                       l1760 054A  
                     l1752 052D                       l1744 0504                       l1840 048F  
                     l1832 043C                       l1824 041D                       l1816 03FC  
                     l1808 03D2                       l1498 0750                       l1690 02BB  
                     l1682 0297                       l1674 020C                       l1666 018C  
                     l1658 0146                       l1594 060F                       l1586 05F6  
                     l1578 05EA                       l1770 0581                       l1762 0558  
                     l1754 0532                       l1746 0514                       l1850 04B6  
                     l1842 0495                       l1834 0476                       l1826 0422  
                     l1818 0401                       l1692 02BC                       l1684 02A0  
                     l1676 021C                       l1668 01A9                       l1596 061F  
                     l1588 0608                       l1780 05AB                       l1772 058B  
                     l1764 0568                       l1756 053F                       l1748 0524  
                     l1860 04DC                       l1852 04BE                       l1844 049D  
                     l1836 047F                       l1828 0430                       l1694 02C5  
                     l1686 02AE                       l1678 0249                       l1598 0624  
                     l1774 05A1                       l1766 0573                       l1758 0546  
                     l1862 04E2                       l1854 04C6                       l1846 04A5  
                     l1838 0487                       l1688 02B7                       l1696 02CB  
                     l1776 05A6                       l1768 0577                       l1864 04E8  
                     l1856 04CE                       l1848 04AB                       l1792 0380  
                     l1698 02CF                       l1778 05AA                       l1866 04EE  
                     l1858 04D4                       l1794 0397                       l1796 039D  
                     l1798 03A2                       ?_isr 0070                       STR_1 0806  
                     STR_2 081C                       STR_3 0817                       STR_4 081B  
                     u1000 0703                       u1001 0702                       u1010 0FDF  
                     u1020 0EA1                       u1100 07C5                       u1021 0EA0  
                     u1101 07C4                       u1030 0EA7                       u1031 0EA6  
                     u1015 0FDA                       u1120 07D6                       u1040 0F2B  
                     u1121 07D5                       u1041 0F2A                       u1210 073F  
                     u1211 073E                       u1115 07C6                       u1140 07EA  
                     u1300 0607                       u1205 071C                       u1141 07E9  
                     u1125 07D2                       u1301 0606                       u1230 0F24  
                     u1070 0F45                       u1150 0F58                       u1310 060E  
                     u1231 0F23                       u1135 07DE                       u1071 0F44  
                     u1055 0F32                       u1151 0F57                       u1311 060D  
                     u1080 07B3                       u1400 0067                       u1240 07FA  
                     u1225 0747                       u1081 07B2                       u1065 0F39  
                     u1401 0066                       u1241 07F9                       u1170 0F6C  
                     u1410 007E                       u1330 061F                       u1250 05C1  
                     u1171 0F6B                       u1411 007D                       u1331 061E  
                     u1251 05C0                       u1180 0FBB                       u1420 0083  
                     u1340 0624                       u1260 05D8                       u1181 0FBA  
                     u1165 0F5F                       u1421 0082                       u1341 0623  
                     u1325 0611                       u1190 0714                       u1350 0030  
                     u1270 05EE                       u1191 0713                       u1095 07B7  
                     u1511 01D1                       u1431 00D4                       u1351 002F  
                     u1271 05ED                       u1600 02BB                       u1512 01D8  
                     u1432 00DB                       u1360 0036                       u1280 05F5  
                     u1601 02BA                       u1521 01FE                       u1513 01DF  
                     u1505 01AB                       u1441 00F0                       u1433 00E2  
                     u1361 0035                       u1281 05F4                       u1265 05D3  
                     u1522 0205                       u1442 00F7                       u1370 003B  
                     u1531 022B                       u1523 020C                       u1451 011C  
                     u1443 00FE                       u1371 003A                       u1700 034D  
                     u1620 02CF                       u1540 0255                       u1532 0232  
                     u1452 0123                       u1380 005C                       u1701 034C  
                     u1621 02CE                       u1533 0239                       u1461 0138  
                     u1453 012A                       u1381 005B                       u1710 036B  
                     u1630 02D4                       u1462 013F                       u1390 0062  
                     u1711 036A                       u1631 02D3                       u1615 02BE  
                     u1551 0261                       u1463 0146                       u1391 0061  
                     u1295 05F7                       u1640 02E8                       u1560 027D  
                     u1552 0268                       u1800 0577                       u1720 0500  
                     u1705 0349                       u1641 02E7                       u1553 026F  
                     u1545 0250                       u1481 016E                       u1801 0576  
                     u1721 04FF                       u1650 02EF                       u1482 0175  
                     u1810 057D                       u1730 0504                       u1651 02EE  
                     u1571 0289                       u1491 019B                       u1483 017C  
                     u1475 0148                       u1811 057C                       u1731 0503  
                     u1660 02F5                       u1572 0290                       u1492 01A2  
                     u1820 0581                       u1740 0524                       u1661 02F4  
                     u1573 0297                       u1565 0278                       u1493 01A9  
                     u1821 0580                       u1741 0523                       u1670 0307  
                     u1830 0596                       u1671 0306                       u1680 0316  
                     u1840 05A6                       u1760 0545                       u1585 0299  
                     u1841 05A5                       u1761 0544                       u1690 0333  
                     u1850 05AA                       u1691 0332                       u1595 02B0  
                     u1851 05A9                       u1835 0591                       u1755 0537  
                     u1907 0EBE                       u1780 0567                       u1860 0437  
                     u1917 0EFA                       u1685 0311                       u1781 0566  
                     u1861 0436                       u1927 076E                       u1695 032F  
                     u1775 0559                       u1937 077D                       u1947 0789  
                     u1795 056C                       _PEIE 005E                       u1957 0EDA  
                     u1877 03C6                       u1887 03F6                       u1897 042A  
                     _POS1 0057                       _POS2 0056                       _POS3 0055  
                     _TEMP 0050          ?_Lcd_Write_String 0070                       _main 0380  
                     btemp 007E                       start 000C         ??_Lcd_Write_String 0077  
          __end_of_Lcd_Cmd 0EE3                      ??_VAL 0020                      ??_isr 0070  
         ?_I2C_Master_Init 0025           ?_I2C_Master_Read 0072           ?_I2C_Master_Wait 0070  
         ?_I2C_Master_Stop 0070              ___fltol@sign1 0049                      ?_main 0070  
          __end_of___flmul 0380            __end_of___fltol 0630                      _ANSEL 0188  
          __end_of___lldiv 070C            __end_of___lwdiv 07EF                      i1l173 0E78  
  __end_of_moverVentilador 07FE                      _PORTA 0005                      _PORTB 0006  
                    _PORTC 0007                      _PORTD 0008                      _PORTE 0009  
  __size_of_Lcd_Set_Cursor 0058                      _TRISA 0085                      _TRISB 0086  
                    _TRISD 0088                      _SSPIE 0463                      _TRISE 0089  
                    _SSPIF 0063                      _setup 0F71                      pclath 000A  
                    status 0003                      wtemp0 007E           __end_of_Lcd_Init 07AB  
         __end_of_Lcd_Port 0E76            __initialization 000F               __end_of_main 04F8  
                   ??_main 004B         __size_of_Lcd_Clear 000D          ?_I2C_Master_Start 0070  
        ?_I2C_Master_Write 0072         ??_I2C_Master_Start 0072         ??_I2C_Master_Write 0074  
                   ?_setup 0070                     _ANSELH 0189                     i1l1258 0E76  
                ??_Lcd_Cmd 0073    __size_of_Lcd_Write_Char 001D                     _SSPADD 0093  
                   _TRISC3 043B                     _TRISC4 043C                     _SSPCON 0014  
                   _SSPBUF 0013           __end_of___xxtofl 05B4                     ___wmul 0F25  
                ??___flmul 002E                     _alarma 0054                  ??___fltol 0044  
                ??___lldiv 007A                  ??___lwdiv 0076           ?_moverVentilador 0070  
       __size_of__Umul8_16 0027      __size_of_alarmaBuzzer 0014                     saved_w 007E  
          Lcd_Set_Cursor@a 0020            Lcd_Set_Cursor@b 0076            Lcd_Set_Cursor@y 0022  
          Lcd_Set_Cursor@z 0021               ___xxtofl@arg 0022               ___xxtofl@exp 0021  
             ___xxtofl@val 0072    __end_of__initialization 001B          __end_of_Lcd_Clear 0EB5  
               ___fltol@f1 0040             __pcstackCOMMON 0070               _alarmaBuzzer 0EB5  
            __end_of_setup 0F9A             _Lcd_Set_Cursor 070C                  ?_Lcd_Init 0070  
                ?_Lcd_Port 0070                    ??_setup 007B                 __pbssBANK0 004E  
        __end_of__Umul8_16 0F71                 __pmaintext 0380                    ?___wmul 0072  
               __pintentry 0004  __size_of_Lcd_Write_String 0025     __end_of_Lcd_Set_Cursor 0764  
                ?___xxtofl 0072                 ??_Lcd_Init 0076                 ??_Lcd_Port 0072  
                  _SSPCON2 0091                    _SSPSTAT 0094                 __stringtab 0800  
           _Lcd_Write_Char 0EE3                    _Lcd_Cmd 0EC9                VAL@variable 007A  
                  _T_byte1 004E                    ___flmul 001F                    ___fltol 05B4  
                  ___lldiv 06A4            __size_of___wmul 0025                    ___lwdiv 07AB  
          ?_Lcd_Set_Cursor 0076                    __ptext1 0F71                    __ptext2 0FC8  
                  __ptext3 06A4                    __ptext4 07EF                    __ptext5 0EB5  
                  __ptext6 04F8                    __ptext7 05B4                    __ptext8 001F  
                  __ptext9 0F4A               __size_of_VAL 0074               __size_of_isr 0009  
               ??___xxtofl 0076   __size_of_I2C_Master_Init 0038   __size_of_I2C_Master_Read 002E  
 __size_of_I2C_Master_Wait 000D   __size_of_I2C_Master_Stop 0009     __end_of_Lcd_Write_Char 0F00  
     end_of_initialization 001B  __size_of_I2C_Master_Start 0009  __size_of_I2C_Master_Write 000A  
          ___lldiv@divisor 0072            ___lldiv@counter 0024           I2C_Master_Init@c 0025  
         I2C_Master_Read@a 0072                  Lcd_Port@a 0072                  _PORTAbits 0005  
            ___xxtofl@sign 0020                  _TRISCbits 0087            ?_Lcd_Write_Char 0070  
        Lcd_Write_String@a 0079          Lcd_Write_String@i 0077                ___flmul@grs 0034  
                _Lcd_Clear 0EA8             __end_of___wmul 0F4A           _Lcd_Write_String 0F00  
      start_initialization 000F                __end_of_VAL 06A4                __end_of_isr 0E7F  
 __size_of_moverVentilador 000F          __size_of_Lcd_Init 0047          __size_of_Lcd_Port 0006  
        ??_I2C_Master_Init 0029          ??_I2C_Master_Read 0074          ??_I2C_Master_Wait 0072  
        ??_I2C_Master_Stop 0072                 ?_Lcd_Clear 0070                   ??___wmul 0076  
                __Umul8_16 0F4A            Lcd_Write_Char@a 0074            Lcd_Write_Char@y 0076  
                ___flmul@a 002A                  ___flmul@b 0026                  ___latbits 0002  
            __pcstackBANK0 0020          __size_of___xxtofl 00BC                   ?_Lcd_Cmd 0070  
         _I2C_Master_Start 0E7F           _I2C_Master_Write 0E91           ___lwdiv@dividend 0074  
         ??_Lcd_Set_Cursor 0077                   VAL@valor 0022                   ?___flmul 0026  
                 ?___fltol 0040                   ?___lldiv 0072                 ?__Umul8_16 0072  
                 ?___lwdiv 0072                  __pstrings 0800           ___lwdiv@quotient 0077  
           __size_of_setup 0029          interrupt_function 0004             ___wmul@product 0076  
        ??_moverVentilador 0072                   Lcd_Cmd@a 0075                  _valor_ADC 0052  
              ??_Lcd_Clear 0076                __stringbase 0805          ___wmul@multiplier 0072  
         ??_Lcd_Write_Char 0073                   _Lcd_Init 0764                   _Lcd_Port 0E70  
      I2C_Master_Read@temp 0076   __end_of_Lcd_Write_String 0F25           __size_of_Lcd_Cmd 001A  
              ??__Umul8_16 0074              ?_alarmaBuzzer 0070           __size_of___flmul 0361  
         __size_of___fltol 007C           __size_of___lldiv 0068           __size_of___lwdiv 0044  
       __end_of__stringtab 0806            _I2C_Master_Init 0FC8            _I2C_Master_Read 0F9A  
                 ___xxtofl 04F8            _I2C_Master_Wait 0E9B            _I2C_Master_Stop 0E88  
          ___lwdiv@divisor 0072            ___lwdiv@counter 0079                   __ptext10 0630  
                 __ptext11 0F25                   __ptext20 0E91                   __ptext12 07AB  
                 __ptext21 0E88                   __ptext13 0F00                   __ptext22 0E7F  
                 __ptext14 0EE3                   __ptext23 0F9A                   __ptext15 070C  
                 __ptext24 0E9B                   __ptext16 0764                   __ptext25 0E76  
                 __ptext17 0EA8                   __ptext18 0EC9                   __ptext19 0E70  
            __size_of_main 0178             ??_alarmaBuzzer 0072   __end_of_I2C_Master_Start 0E88  
 __end_of_I2C_Master_Write 0E9B                 _INTCONbits 000B         Lcd_Write_Char@temp 0075  
                 intlevel1 0000           ___lldiv@dividend 0076                  stringcode 0800  
               _OSCCONbits 008F    __end_of_I2C_Master_Init 1000    __end_of_I2C_Master_Read 0FC8  
  __end_of_I2C_Master_Wait 0EA8    __end_of_I2C_Master_Stop 0E91         Lcd_Set_Cursor@temp 0023  
   __Umul8_16@multiplicand 0072           ___lldiv@quotient 0020          I2C_Master_Write@d 0072  
                 stringdir 0800                   stringtab 0800                _SSPCON2bits 0091  
          _moverVentilador 07EF       __Umul8_16@multiplier 007A          __Umul8_16@product 0076  
